ccopy_reg
_reconstructor
p0
(cnetworkx.classes.multigraph
MultiGraph
p1
c__builtin__
object
p2
Ntp3
Rp4
(dp5
S'node'
p6
(dp7
S'216'
p8
(dp9
S'y'
p10
F-462.64722
sS'x'
p11
F-1191.1916700000002
sS'tooltip'
p12
VPSC(lngx=-119.119167,laty=46.264722)
p13
ssS'217'
p14
(dp15
g10
F-364.75278000000003
sg11
F-824.075
sg12
VTRI(lngx=-82.4075,laty=36.475278)
p16
ssS'214'
p17
(dp18
g10
F-415.86944000000005
sg11
F-838.07778
sg12
VTOL(lngx=-83.807778,laty=41.586944)
p19
ssS'215'
p20
(dp21
g10
F-424.83333000000005
sg11
F-764.6666700000001
sg12
VITH(lngx=-76.466667,laty=42.483333)
p22
ssS'212'
p23
(dp24
g10
F-303.96389
sg11
F-843.50278
sg12
VTLH(lngx=-84.350278,laty=30.396389)
p25
ssS'213'
p26
(dp27
g10
F-279.75556
sg11
F-825.33056
sg12
VTPA(lngx=-82.533056,laty=27.975556)
p28
ssS'210'
p29
(dp30
g10
F-431.16667
sg11
F-761.1666700000001
sg12
VSYR(lngx=-76.116667,laty=43.116667)
p31
ssS'211'
p32
(dp33
g10
F-417.33333000000005
sg11
F-714.33333
sg12
VPVD(lngx=-71.433333,laty=41.733333)
p34
ssS'165'
p35
(dp36
g10
F-266.83056
sg11
F-800.95556
sg12
VPBI(lngx=-80.095556,laty=26.683056)
p37
ssS'218'
p38
(dp39
g10
F-321.16110999999995
sg11
F-1109.41111
sg12
VTUS(lngx=-110.941111,laty=32.116111)
p40
ssS'219'
p41
(dp42
g10
F-361.98332999999997
sg11
F-958.8805600000001
sg12
VTUL(lngx=-95.888056,laty=36.198333)
p43
ssS'133'
p44
(dp45
g10
F-376.5
sg11
F-974.33333
sg12
VICT(lngx=-97.433333,laty=37.65)
p46
ssS'132'
p47
(dp48
g10
F-257.83333
sg11
F-802.66667
sg12
VMIA(lngx=-80.266667,laty=25.783333)
p49
ssS'131'
p50
(dp51
g10
F-339.5
sg11
F-811.1666700000001
sg12
VCAE(lngx=-81.116667,laty=33.95)
p52
ssS'130'
p53
(dp54
g10
F-350.66667
sg11
F-899.6666700000001
sg12
VMEM(lngx=-89.966667,laty=35.066667)
p55
ssS'137'
p56
(dp57
g10
F-469.16666999999995
sg11
F-1140.83333
sg12
VMSO(lngx=-114.083333,laty=46.916667)
p58
ssS'136'
p59
(dp60
g10
F-448.83333
sg11
F-932.16944
sg12
VMSP(lngx=-93.216944,laty=44.883333)
p61
ssS'135'
p62
(dp63
g10
F-373.52778
sg11
F-1219.19444
sg12
VSJC(lngx=-121.919444,laty=37.352778)
p64
ssS'134'
p65
(dp66
g10
F-417.83333
sg11
F-877.5
sg12
VMDW(lngx=-87.75,laty=41.783333)
p67
ssS'139'
p68
(dp69
g10
F-365.83333000000005
sg11
F-1218.5
sg12
VMRY(lngx=-121.85,laty=36.583333)
p70
ssS'138'
p71
(dp72
g10
F-306.91111
sg11
F-882.42778
sg12
VMOB(lngx=-88.242778,laty=30.691111)
p73
ssS'166'
p74
(dp75
g10
F-474.0
sg11
F-1202.0
sg12
VEAT(lngx=-120.2,laty=47.4)
p76
ssS'24'
p77
(dp78
g10
F-435.64444000000003
sg11
F-1162.2277800000002
sg12
VBOI(lngx=-116.222778,laty=43.564444)
p79
ssS'25'
p80
(dp81
g10
F-419.38889000000006
sg11
F-726.83333
sg12
VBDL(lngx=-72.683333,laty=41.938889)
p82
ssS'26'
p83
(dp84
g10
F-464.01667000000003
sg11
F-941.35556
sg12
VBRD(lngx=-94.135556,laty=46.401667)
p85
ssS'27'
p86
(dp87
g10
F-429.40556000000004
sg11
F-787.3222199999999
sg12
VBUF(lngx=-78.732222,laty=42.940556)
p88
ssS'20'
p89
(dp90
g10
F-429.65556
sg11
F-837.43611
sg12
VFNT(lngx=-83.743611,laty=42.965556)
p91
ssS'21'
p92
(dp93
g10
F-467.83333
sg11
F-1007.5
sg12
VBIS(lngx=-100.75,laty=46.783333)
p94
ssS'22'
p95
(dp96
g10
F-380.36388999999997
sg11
F-846.0583300000001
sg12
VLEX(lngx=-84.605833,laty=38.036389)
p97
ssS'23'
p98
(dp99
g10
F-342.0
sg11
F-1183.5
sg12
VBUR(lngx=-118.35,laty=34.2)
p100
ssS'160'
p101
(dp102
g10
F-377.16667
sg11
F-1222.16667
sg12
VOAK(lngx=-122.216667,laty=37.716667)
p103
ssS'28'
p104
(dp105
g10
F-444.71944
sg11
F-731.53333
sg12
VBTV(lngx=-73.153333,laty=44.471944)
p106
ssS'29'
p107
(dp108
g10
F-333.66667
sg11
F-819.6666700000001
sg12
VAGS(lngx=-81.966667,laty=33.366667)
p109
ssS'161'
p110
(dp111
g10
F-456.33333
sg11
F-894.5
sg12
VRHI(lngx=-89.45,laty=45.633333)
p112
ssS'0'
p113
(dp114
g10
F-347.29444
sg11
F-922.24444
sg12
VLIT(lngx=-92.224444,laty=34.729444)
p115
ssS'4'
p116
(dp117
g10
F-350.40278
sg11
F-1066.09167
sg12
VABQ(lngx=-106.609167,laty=35.040278)
p118
ssS'8'
p119
(dp120
g10
F-354.36110999999994
sg11
F-825.4166700000001
sg12
VAVL(lngx=-82.541667,laty=35.436111)
p121
ssS'163'
p122
(dp123
g10
F-284.29444
sg11
F-813.08889
sg12
VMCO(lngx=-81.308889,laty=28.429444)
p124
ssS'119'
p125
(dp126
g10
F-299.93333
sg11
F-902.58056
sg12
VMSY(lngx=-90.258056,laty=29.993333)
p127
ssS'120'
p128
(dp129
g10
F-381.74444
sg11
F-857.3611099999999
sg12
VSDF(lngx=-85.736111,laty=38.174444)
p130
ssS'121'
p131
(dp132
g10
F-328.52778
sg11
F-968.5
sg12
VDAL(lngx=-96.85,laty=32.852778)
p133
ssS'122'
p134
(dp135
g10
F-350.35278
sg11
F-852.03889
sg12
VCHA(lngx=-85.203889,laty=35.035278)
p136
ssS'123'
p137
(dp138
g10
F-429.325
sg11
F-714.3555600000001
sg12
VMHT(lngx=-71.435556,laty=42.9325)
p139
ssS'124'
p140
(dp141
g10
F-431.57778
sg11
F-933.31389
sg12
VMCW(lngx=-93.331389,laty=43.157778)
p142
ssS'125'
p143
(dp144
g10
F-435.32778
sg11
F-830.79722
sg12
VMBS(lngx=-83.079722,laty=43.532778)
p145
ssS'126'
p146
(dp147
g10
F-261.75833
sg11
F-982.38611
sg12
VMFE(lngx=-98.238611,laty=26.175833)
p148
ssS'127'
p149
(dp150
g10
F-360.83333000000005
sg11
F-1151.66667
sg12
VLAS(lngx=-115.166667,laty=36.083333)
p151
ssS'128'
p152
(dp153
g10
F-359.5
sg11
F-839.1666700000001
sg12
VTYS(lngx=-83.916667,laty=35.95)
p154
ssS'129'
p155
(dp156
g10
F-281.0
sg11
F-806.3333299999999
sg12
VMLB(lngx=-80.633333,laty=28.1)
p157
ssS'167'
p158
(dp159
g10
F-457.0
sg11
F-1188.33333
sg12
VPDT(lngx=-118.833333,laty=45.7)
p160
ssS'118'
p161
(dp162
g10
F-339.425
sg11
F-1184.07222
sg12
VLAX(lngx=-118.407222,laty=33.9425)
p163
ssS'59'
p164
(dp165
g10
F-413.0
sg11
F-959.0
sg12
VOMA(lngx=-95.9,laty=41.3)
p166
ssS'58'
p167
(dp168
g10
F-455.66667
sg11
F-848.0
sg12
VPLN(lngx=-84.8,laty=45.566667)
p169
ssS'55'
p170
(dp171
g10
F-304.83333
sg11
F-865.25278
sg12
VVPS(lngx=-86.525278,laty=30.483333)
p172
ssS'54'
p173
(dp174
g10
F-396.33333
sg11
F-1069.16667
sg12
VEGE(lngx=-106.916667,laty=39.633333)
p175
ssS'57'
p176
(dp177
g10
F-421.66666999999995
sg11
F-769.0
sg12
VELM(lngx=-76.9,laty=42.166667)
p178
ssS'56'
p179
(dp180
g10
F-318.0
sg11
F-1063.83333
sg12
VELP(lngx=-106.383333,laty=31.8)
p181
ssS'51'
p182
(dp183
g10
F-481.16667
sg11
F-989.0
sg12
VDVL(lngx=-98.9,laty=48.116667)
p184
ssS'50'
p185
(dp186
g10
F-422.125
sg11
F-833.5333300000001
sg12
VDTW(lngx=-83.353333,laty=42.2125)
p187
ssS'53'
p188
(dp189
g10
F-468.33333000000005
sg11
F-921.83333
sg12
VDLH(lngx=-92.183333,laty=46.833333)
p190
ssS'52'
p191
(dp192
g10
F-313.16667
sg11
F-854.5
sg12
VDHN(lngx=-85.45,laty=31.316667)
p193
ssS'164'
p194
(dp195
g10
F-442.66666999999995
sg11
F-885.16667
sg12
VATW(lngx=-88.516667,laty=44.266667)
p196
ssS'201'
p197
(dp198
g10
F-347.5
sg11
F-876.1666700000001
sg12
VMSL(lngx=-87.616667,laty=34.75)
p199
ssS'199'
p200
(dp201
g10
F-465.33333
sg11
F-875.66667
sg12
VMQT(lngx=-87.566667,laty=46.533333)
p202
ssS'179'
p203
(dp204
g10
F-353.33333000000005
sg11
F-943.6666700000001
sg12
VFSM(lngx=-94.366667,laty=35.333333)
p205
ssS'200'
p206
(dp207
g10
F-474.48889
sg11
F-1223.09444
sg12
VSEA(lngx=-122.309444,laty=47.448889)
p208
ssS'195'
p209
(dp210
g10
F-376.18889
sg11
F-1223.75
sg12
VSFO(lngx=-122.375,laty=37.618889)
p211
ssS'194'
p212
(dp213
g10
F-327.33333000000005
sg11
F-1171.83333
sg12
VSAN(lngx=-117.183333,laty=32.733333)
p214
ssS'197'
p215
(dp216
g10
F-273.95556
sg11
F-825.54444
sg12
VSRQ(lngx=-82.554444,laty=27.395556)
p217
ssS'178'
p218
(dp219
g10
F-291.83333
sg11
F-810.5
sg12
VDAB(lngx=-81.05,laty=29.183333)
p220
ssS'191'
p221
(dp222
g10
F-387.0
sg11
F-1216.16667
sg12
VSMF(lngx=-121.616667,laty=38.7)
p223
ssS'190'
p224
(dp225
g10
F-305.33333
sg11
F-911.5
sg12
VBTR(lngx=-91.15,laty=30.533333)
p226
ssS'193'
p227
(dp228
g10
F-295.33333
sg11
F-984.6666700000001
sg12
VSAT(lngx=-98.466667,laty=29.533333)
p229
ssS'192'
p230
(dp231
g10
F-407.88333
sg11
F-1119.66667
sg12
VSLC(lngx=-111.966667,laty=40.788333)
p232
ssS'115'
p233
(dp234
g10
F-423.63056
sg11
F-710.0
sg12
VBOS(lngx=-71.0,laty=42.363056)
p235
ssS'114'
p236
(dp237
g10
F-408.50833
sg11
F-967.59167
sg12
VLNK(lngx=-96.759167,laty=40.850833)
p238
ssS'88'
p239
(dp240
g10
F-420.83333000000005
sg11
F-801.83333
sg12
VERI(lngx=-80.183333,laty=42.083333)
p241
ssS'89'
p242
(dp243
g10
F-482.16667
sg11
F-1066.16667
sg12
VGGW(lngx=-106.616667,laty=48.216667)
p244
ssS'111'
p245
(dp246
g10
F-387.48610999999994
sg11
F-903.7
sg12
VSTL(lngx=-90.37,laty=38.748611)
p247
ssS'110'
p248
(dp249
g10
F-302.05278
sg11
F-919.875
sg12
VLFT(lngx=-91.9875,laty=30.205278)
p250
ssS'113'
p251
(dp252
g10
F-342.68056
sg11
F-887.6999999999999
sg12
VTUP(lngx=-88.77,laty=34.268056)
p253
ssS'112'
p254
(dp255
g10
F-406.52222
sg11
F-754.4027800000001
sg12
VABE(lngx=-75.440278,laty=40.652222)
p256
ssS'82'
p257
(dp258
g10
F-469.16666999999995
sg11
F-968.16667
sg12
VFAR(lngx=-96.816667,laty=46.916667)
p259
ssS'83'
p260
(dp261
g10
F-466.0
sg11
F-1119.83333
sg12
VHLN(lngx=-111.983333,laty=46.6)
p262
ssS'80'
p263
(dp264
g10
F-336.36667
sg11
F-844.2805599999999
sg12
VATL(lngx=-84.428056,laty=33.636667)
p265
ssS'81'
p266
(dp267
g10
F-314.67222
sg11
F-893.36944
sg12
VPIB(lngx=-89.336944,laty=31.467222)
p268
ssS'86'
p269
(dp270
g10
F-346.37222
sg11
F-867.75
sg12
VHSV(lngx=-86.775,laty=34.637222)
p271
ssS'87'
p272
(dp273
g10
F-397.17222
sg11
F-862.9472199999999
sg12
VIND(lngx=-86.294722,laty=39.717222)
p274
ssS'84'
p275
(dp276
g10
F-414.16666999999995
sg11
F-818.5
sg12
VCLE(lngx=-81.85,laty=41.416667)
p277
ssS'85'
p278
(dp279
g10
F-471.23610999999994
sg11
F-885.73333
sg12
VCMX(lngx=-88.573333,laty=47.123611)
p280
ssS'198'
p281
(dp282
g10
F-321.33333
sg11
F-812.0
sg12
VSAV(lngx=-81.2,laty=32.133333)
p283
ssS'206'
p284
(dp285
g10
F-476.19722
sg11
F-1175.33889
sg12
VGEG(lngx=-117.533889,laty=47.619722)
p286
ssS'226'
p287
(dp288
g10
F-410.66667
sg11
F-737.0
sg12
VHPN(lngx=-73.7,laty=41.066667)
p289
ssS'3'
p290
(dp291
g10
F-381.33333
sg11
F-784.5
sg12
VCHO(lngx=-78.45,laty=38.133333)
p292
ssS'177'
p293
(dp294
g10
F-405.0
sg11
F-1223.0
sg12
VRDD(lngx=-122.3,laty=40.5)
p295
ssS'7'
p296
(dp297
g10
F-409.83333000000005
sg11
F-1241.0
sg12
VACV(lngx=-124.1,laty=40.983333)
p298
ssS'225'
p299
(dp300
g10
F-449.16666999999995
sg11
F-971.5
sg12
VATY(lngx=-97.15,laty=44.916667)
p301
ssS'108'
p302
(dp303
g10
F-421.66666999999995
sg11
F-1217.33333
sg12
VLMT(lngx=-121.733333,laty=42.166667)
p304
ssS'109'
p305
(dp306
g10
F-407.66666999999995
sg11
F-738.6666700000001
sg12
VLGA(lngx=-73.866667,laty=40.766667)
p307
ssS'102'
p308
(dp309
g10
F-406.33333
sg11
F-737.8333299999999
sg12
VJFK(lngx=-73.783333,laty=40.633333)
p310
ssS'103'
p311
(dp312
g10
F-336.66666999999995
sg11
F-1178.66667
sg12
VSNA(lngx=-117.866667,laty=33.666667)
p313
ssS'100'
p314
(dp315
g10
F-300.83333
sg11
F-941.0
sg12
VBPT(lngx=-94.1,laty=30.083333)
p316
ssS'101'
p317
(dp318
g10
F-435.81944
sg11
F-967.41944
sg12
VFSD(lngx=-96.741944,laty=43.581944)
p319
ssS'106'
p320
(dp321
g10
F-428.83333
sg11
F-855.3333299999999
sg12
VGRR(lngx=-85.533333,laty=42.883333)
p322
ssS'107'
p323
(dp324
g10
F-323.33333000000005
sg11
F-887.5
sg12
VMEI(lngx=-88.75,laty=32.333333)
p325
ssS'104'
p326
(dp327
g10
F-422.35
sg11
F-855.51944
sg12
VAZO(lngx=-85.551944,laty=42.235)
p328
ssS'105'
p329
(dp330
g10
F-392.91666999999995
sg11
F-947.30556
sg12
VMCI(lngx=-94.730556,laty=39.291667)
p331
ssS'39'
p332
(dp333
g10
F-448.65833000000003
sg11
F-914.84167
sg12
VEAU(lngx=-91.484167,laty=44.865833)
p334
ssS'38'
p335
(dp336
g10
F-462.5
sg11
F-844.6666700000001
sg12
VCIU(lngx=-84.466667,laty=46.25)
p337
ssS'33'
p338
(dp339
g10
F-447.69444
sg11
F-896.8305599999999
sg12
VCWA(lngx=-89.683056,laty=44.769444)
p340
ssS'32'
p341
(dp342
g10
F-404.77221999999995
sg11
F-889.1583300000001
sg12
VBMI(lngx=-88.915833,laty=40.477222)
p343
ssS'31'
p344
(dp345
g10
F-418.84722
sg11
F-917.1083299999999
sg12
VCID(lngx=-91.710833,laty=41.884722)
p346
ssS'30'
p347
(dp348
g10
F-427.83333
sg11
F-845.8333299999999
sg12
VLAN(lngx=-84.583333,laty=42.783333)
p349
ssS'37'
p350
(dp351
g10
F-419.78611
sg11
F-879.04722
sg12
VORD(lngx=-87.904722,laty=41.978611)
p352
ssS'36'
p353
(dp354
g10
F-447.41389
sg11
F-855.82222
sg12
VTVC(lngx=-85.582222,laty=44.741389)
p355
ssS'35'
p356
(dp357
g10
F-352.16667
sg11
F-809.33333
sg12
VCLT(lngx=-80.933333,laty=35.216667)
p358
ssS'34'
p359
(dp360
g10
F-328.98611000000005
sg11
F-800.4055599999999
sg12
VCHS(lngx=-80.040556,laty=32.898611)
p361
ssS'205'
p362
(dp363
g10
F-265.42222
sg11
F-817.55278
sg12
VRSW(lngx=-81.755278,laty=26.542222)
p364
ssS'223'
p365
(dp366
g10
F-389.44444
sg11
F-774.55833
sg12
VIAD(lngx=-77.455833,laty=38.944444)
p367
ssS'176'
p368
(dp369
g10
F-358.77778
sg11
F-787.875
sg12
VRDU(lngx=-78.7875,laty=35.877778)
p370
ssS'60'
p371
(dp372
g10
F-441.16667
sg11
F-1232.16667
sg12
VEUG(lngx=-123.216667,laty=44.116667)
p373
ssS'61'
p374
(dp375
g10
F-380.36944
sg11
F-875.325
sg12
VEVV(lngx=-87.5325,laty=38.036944)
p376
ssS'62'
p377
(dp378
g10
F-485.66667
sg11
F-934.0
sg12
VINL(lngx=-93.4,laty=48.566667)
p379
ssS'63'
p380
(dp381
g10
F-435.16666999999995
sg11
F-1120.66667
sg12
VIDA(lngx=-112.066667,laty=43.516667)
p382
ssS'64'
p383
(dp384
g10
F-425.51111
sg11
F-941.9194400000001
sg12
VFOD(lngx=-94.191944,laty=42.551111)
p385
ssS'65'
p386
(dp387
g10
F-260.725
sg11
F-801.52778
sg12
VFLL(lngx=-80.152778,laty=26.0725)
p388
ssS'66'
p389
(dp390
g10
F-367.66666999999995
sg11
F-1197.16667
sg12
VFAT(lngx=-119.716667,laty=36.766667)
p391
ssS'67'
p392
(dp393
g10
F-296.83333
sg11
F-822.66667
sg12
VGNV(lngx=-82.266667,laty=29.683333)
p394
ssS'68'
p395
(dp396
g10
F-457.77500000000003
sg11
F-1111.5305600000002
sg12
VBZN(lngx=-111.153056,laty=45.7775)
p397
ssS'69'
p398
(dp399
g10
F-429.5
sg11
F-879.0
sg12
VMKE(lngx=-87.9,laty=42.95)
p400
ssS'175'
p401
(dp402
g10
F-414.5
sg11
F-905.16667
sg12
VMLI(lngx=-90.516667,laty=41.45)
p403
ssS'174'
p404
(dp405
g10
F-467.5
sg11
F-1171.16667
sg12
VPUW(lngx=-117.116667,laty=46.75)
p406
ssS'173'
p407
(dp408
g10
F-455.88611000000003
sg11
F-1225.975
sg12
VPDX(lngx=-122.5975,laty=45.588611)
p409
ssS'172'
p410
(dp411
g10
F-400.0
sg11
F-828.8333299999999
sg12
VCMH(lngx=-82.883333,laty=40.0)
p412
ssS'171'
p413
(dp414
g10
F-404.91389
sg11
F-802.32778
sg12
VPIT(lngx=-80.232778,laty=40.491389)
p415
ssS'170'
p416
(dp417
g10
F-443.83333
sg11
F-1002.8333299999999
sg12
VPIR(lngx=-100.283333,laty=44.383333)
p418
ssS'203'
p419
(dp420
g10
F-334.33333
sg11
F-1120.33333
sg12
VPHX(lngx=-112.033333,laty=33.433333)
p421
ssS'222'
p422
(dp423
g10
F-461.0
sg11
F-1183.0
sg12
VALW(lngx=-118.3,laty=46.1)
p424
ssS'181'
p425
(dp426
g10
F-440.33333
sg11
F-1030.5
sg12
VRAP(lngx=-103.05,laty=44.033333)
p427
ssS'182'
p428
(dp429
g10
F-324.5
sg11
F-938.16667
sg12
VSHV(lngx=-93.816667,laty=32.45)
p430
ssS'183'
p431
(dp432
g10
F-394.99167
sg11
F-1197.68056
sg12
VRNO(lngx=-119.768056,laty=39.499167)
p433
ssS'180'
p434
(dp435
g10
F-304.66667
sg11
F-871.83333
sg12
VPNS(lngx=-87.183333,laty=30.466667)
p436
ssS'2'
p437
(dp438
g10
F-427.33333000000005
sg11
F-738.0
sg12
VALB(lngx=-73.8,laty=42.733333)
p439
ssS'162'
p440
(dp441
g10
F-340.56111
sg11
F-1176.01111
sg12
VONT(lngx=-117.601111,laty=34.056111)
p442
ssS'187'
p443
(dp444
g10
F-442.5
sg11
F-1211.5
sg12
VRDM(lngx=-121.15,laty=44.25)
p445
ssS'184'
p446
(dp447
g10
F-477.16667
sg11
F-1041.83333
sg12
VSDY(lngx=-104.183333,laty=47.716667)
p448
ssS'6'
p449
(dp450
g10
F-450.83333000000005
sg11
F-835.5
sg12
VAPN(lngx=-83.55,laty=45.083333)
p451
ssS'220'
p452
(dp453
g10
F-400.33333
sg11
F-882.8333299999999
sg12
VCMI(lngx=-88.283333,laty=40.033333)
p454
ssS'186'
p455
(dp456
g10
F-373.16667
sg11
F-799.83333
sg12
VROA(lngx=-79.983333,laty=37.316667)
p457
ssS'188'
p458
(dp459
g10
F-423.66667
sg11
F-1228.66667
sg12
VMFR(lngx=-122.866667,laty=42.366667)
p460
ssS'189'
p461
(dp462
g10
F-388.51944000000003
sg11
F-770.37778
sg12
VDCA(lngx=-77.037778,laty=38.851944)
p463
ssS'202'
p464
(dp465
g10
F-424.0
sg11
F-963.8333299999999
sg12
VSUX(lngx=-96.383333,laty=42.4)
p466
ssS'196'
p467
(dp468
g10
F-352.36944
sg11
F-1206.41944
sg12
VSBP(lngx=-120.641944,laty=35.236944)
p469
ssS'221'
p470
(dp471
g10
F-407.72222
sg11
F-778.8333299999999
sg12
VSCE(lngx=-77.883333,laty=40.772222)
p472
ssS'185'
p473
(dp474
g10
F-375.0
sg11
F-773.16667
sg12
VRIC(lngx=-77.316667,laty=37.5)
p475
ssS'99'
p476
(dp477
g10
F-469.33333
sg11
F-986.83333
sg12
VJMS(lngx=-98.683333,laty=46.933333)
p478
ssS'98'
p479
(dp480
g10
F-397.5
sg11
F-841.83333
sg12
VDAY(lngx=-84.183333,laty=39.75)
p481
ssS'168'
p482
(dp483
g10
F-398.71943999999996
sg11
F-752.41111
sg12
VPHL(lngx=-75.241111,laty=39.871944)
p484
ssS'169'
p485
(dp486
g10
F-360.97778
sg11
F-799.3722200000001
sg12
VGSO(lngx=-79.937222,laty=36.097778)
p487
ssS'229'
p488
(dp489
g10
F-353.93056
sg11
F-976.0083299999999
sg12
VOKC(lngx=-97.600833,laty=35.393056)
p490
ssS'228'
p491
(dp492
g10
F-413.38333
sg11
F-757.23333
sg12
VAVP(lngx=-75.723333,laty=41.338333)
p493
ssS'91'
p494
(dp495
g10
F-245.5
sg11
F-817.66667
sg12
VEYW(lngx=-81.766667,laty=24.55)
p496
ssS'90'
p497
(dp498
g10
F-475.0
sg11
F-1113.66667
sg12
VGTF(lngx=-111.366667,laty=47.5)
p499
ssS'93'
p500
(dp501
g10
F-439.08333
sg11
F-925.0
sg12
VRST(lngx=-92.5,laty=43.908333)
p502
ssS'92'
p503
(dp504
g10
F-482.66666999999995
sg11
F-1012.8333299999999
sg12
VMOT(lngx=-101.283333,laty=48.266667)
p505
ssS'95'
p506
(dp507
g10
F-436.5
sg11
F-703.0
sg12
VPWM(lngx=-70.3,laty=43.65)
p508
ssS'94'
p509
(dp510
g10
F-480.83333000000005
sg11
F-1055.66667
sg12
VOLF(lngx=-105.566667,laty=48.083333)
p511
ssS'97'
p512
(dp513
g10
F-304.16667
sg11
F-816.3333299999999
sg12
VJAX(lngx=-81.633333,laty=30.416667)
p514
ssS'96'
p515
(dp516
g10
F-323.11110999999994
sg11
F-900.75833
sg12
VJAN(lngx=-90.075833,laty=32.311111)
p517
ssS'11'
p518
(dp519
g10
F-391.75278
sg11
F-766.6833300000001
sg12
VBWI(lngx=-76.668333,laty=39.175278)
p520
ssS'10'
p521
(dp522
g10
F-444.83333000000005
sg11
F-881.3333299999999
sg12
VGRB(lngx=-88.133333,laty=44.483333)
p523
ssS'13'
p524
(dp525
g10
F-370.60277999999994
sg11
F-887.73056
sg12
VPAH(lngx=-88.773056,laty=37.060278)
p526
ssS'12'
p527
(dp528
g10
F-448.0
sg11
F-688.16667
sg12
VBGR(lngx=-68.816667,laty=44.8)
p529
ssS'15'
p530
(dp531
g10
F-488.0
sg11
F-1225.33333
sg12
VBLI(lngx=-122.533333,laty=48.8)
p532
ssS'14'
p533
(dp534
g10
F-302.16667
sg11
F-856.83333
sg12
VPFN(lngx=-85.683333,laty=30.216667)
p535
ssS'17'
p536
(dp537
g10
F-459.54722
sg11
F-1124.975
sg12
VBTM(lngx=-112.4975,laty=45.954722)
p538
ssS'16'
p539
(dp540
g10
F-475.16666999999995
sg11
F-949.33333
sg12
VBJI(lngx=-94.933333,laty=47.516667)
p541
ssS'19'
p542
(dp543
g10
F-335.66667
sg11
F-867.5
sg12
VBHM(lngx=-86.75,laty=33.566667)
p544
ssS'18'
p545
(dp546
g10
F-458.0
sg11
F-1085.33333
sg12
VBIL(lngx=-108.533333,laty=45.8)
p547
ssS'117'
p548
(dp549
g10
F-407.95278
sg11
F-731.00278
sg12
VISP(lngx=-73.100278,laty=40.795278)
p550
ssS'116'
p551
(dp552
g10
F-338.16667
sg11
F-1181.5
sg12
VLGB(lngx=-118.15,laty=33.816667)
p553
ssS'204'
p554
(dp555
g10
F-417.0
sg11
F-863.16667
sg12
VSBN(lngx=-86.316667,laty=41.7)
p556
ssS'151'
p557
(dp558
g10
F-337.0
sg11
F-789.6666700000001
sg12
VMYR(lngx=-78.966667,laty=33.7)
p559
ssS'150'
p560
(dp561
g10
F-431.66666999999995
sg11
F-862.33333
sg12
VMKG(lngx=-86.233333,laty=43.166667)
p562
ssS'153'
p563
(dp564
g10
F-429.08056
sg11
F-1064.64444
sg12
VCPR(lngx=-106.464444,laty=42.908056)
p565
ssS'152'
p566
(dp567
g10
F-361.24443999999994
sg11
F-866.7805599999999
sg12
VBNA(lngx=-86.678056,laty=36.124444)
p568
ssS'155'
p569
(dp570
g10
F-371.33333
sg11
F-765.0
sg12
VPHF(lngx=-76.5,laty=37.133333)
p571
ssS'154'
p572
(dp573
g10
F-406.925
sg11
F-741.68611
sg12
VEWR(lngx=-74.168611,laty=40.6925)
p574
ssS'157'
p575
(dp576
g10
F-369.0
sg11
F-762.0
sg12
VORF(lngx=-76.2,laty=36.9)
p577
ssS'156'
p578
(dp579
g10
F-463.83333
sg11
F-1170.33333
sg12
VLWS(lngx=-117.033333,laty=46.383333)
p580
ssS'159'
p581
(dp582
g10
F-362.81667
sg11
F-943.06667
sg12
VXNA(lngx=-94.306667,laty=36.281667)
p583
ssS'158'
p584
(dp585
g10
F-434.16666999999995
sg11
F-1242.5
sg12
VOTH(lngx=-124.25,laty=43.416667)
p586
ssS'234'
p587
(dp588
g10
F-383.66667
sg11
F-816.0
sg12
VCRW(lngx=-81.6,laty=38.366667)
p589
ssS'207'
p590
(dp591
g10
F-372.5
sg11
F-933.8333299999999
sg12
VSGF(lngx=-93.383333,laty=37.25)
p592
ssS'230'
p593
(dp594
g10
F-296.45556
sg11
F-952.78889
sg12
VHOU(lngx=-95.278889,laty=29.645556)
p595
ssS'231'
p596
(dp597
g10
F-342.70556
sg11
F-779.0250000000001
sg12
VILM(lngx=-77.9025,laty=34.270556)
p598
ssS'232'
p599
(dp600
g10
F-465.66667
sg11
F-1205.33333
sg12
VYKM(lngx=-120.533333,laty=46.566667)
p601
ssS'233'
p602
(dp603
g10
F-405.19444
sg11
F-1068.69444
sg12
VHDN(lngx=-106.869444,laty=40.519444)
p604
ssS'224'
p605
(dp606
g10
F-425.5
sg11
F-923.8333299999999
sg12
VALO(lngx=-92.383333,laty=42.55)
p607
ssS'48'
p608
(dp609
g10
F-398.61667
sg11
F-1046.73056
sg12
VDEN(lngx=-104.673056,laty=39.861667)
p610
ssS'49'
p611
(dp612
g10
F-415.33889
sg11
F-936.63056
sg12
VDSM(lngx=-93.663056,laty=41.533889)
p613
ssS'46'
p614
(dp615
g10
F-323.0
sg11
F-864.0
sg12
VMGM(lngx=-86.4,laty=32.3)
p616
ssS'47'
p617
(dp618
g10
F-471.33333
sg11
F-1046.83333
sg12
VGDV(lngx=-104.683333,laty=47.133333)
p619
ssS'44'
p620
(dp621
g10
F-328.96943999999996
sg11
F-970.38056
sg12
VDFW(lngx=-97.038056,laty=32.896944)
p622
ssS'45'
p623
(dp624
g10
F-431.39722
sg11
F-893.375
sg12
VMSN(lngx=-89.3375,laty=43.139722)
p625
ssS'42'
p626
(dp627
g10
F-485.5
sg11
F-1097.66667
sg12
VHVR(lngx=-109.766667,laty=48.55)
p628
ssS'43'
p629
(dp630
g10
F-388.16667
sg11
F-1047.16667
sg12
VCOS(lngx=-104.716667,laty=38.816667)
p631
ssS'40'
p632
(dp633
g10
F-473.83333
sg11
F-928.3333299999999
sg12
VHIB(lngx=-92.833333,laty=47.383333)
p634
ssS'41'
p635
(dp636
g10
F-390.48889
sg11
F-846.67778
sg12
VCVG(lngx=-84.667778,laty=39.048889)
p637
ssS'1'
p638
(dp639
g10
F-409.16111
sg11
F-814.42222
sg12
VCAK(lngx=-81.442222,laty=40.916111)
p640
ssS'5'
p641
(dp642
g10
F-313.275
sg11
F-925.4861099999999
sg12
VAEX(lngx=-92.548611,laty=31.3275)
p643
ssS'9'
p644
(dp645
g10
F-301.94444
sg11
F-976.7
sg12
VAUS(lngx=-97.67,laty=30.194444)
p646
ssS'146'
p647
(dp648
g10
F-338.33333000000005
sg11
F-1165.0
sg12
VPSP(lngx=-116.5,laty=33.833333)
p649
ssS'147'
p650
(dp651
g10
F-455.83333000000005
sg11
F-941.83333
sg12
VSTC(lngx=-94.183333,laty=45.583333)
p652
ssS'144'
p653
(dp654
g10
F-464.33333
sg11
F-1058.83333
sg12
VMLS(lngx=-105.883333,laty=46.433333)
p655
ssS'145'
p656
(dp657
g10
F-325.0
sg11
F-920.3333299999999
sg12
VMLU(lngx=-92.033333,laty=32.5)
p658
ssS'142'
p659
(dp660
g10
F-301.16667
sg11
F-932.1666700000001
sg12
VLCH(lngx=-93.216667,laty=30.116667)
p661
ssS'143'
p662
(dp663
g10
F-470.5
sg11
F-1094.66667
sg12
VLWT(lngx=-109.466667,laty=47.05)
p664
ssS'140'
p665
(dp666
g10
F-454.5
sg11
F-984.33333
sg12
VABR(lngx=-98.433333,laty=45.45)
p667
ssS'141'
p668
(dp669
g10
F-438.83333
sg11
F-912.5
sg12
VLSE(lngx=-91.25,laty=43.883333)
p670
ssS'209'
p671
(dp672
g10
F-435.0
sg11
F-1143.16667
sg12
VSUN(lngx=-114.316667,laty=43.5)
p673
ssS'208'
p674
(dp675
g10
F-415.0
sg11
F-740.16667
sg12
VSWF(lngx=-74.016667,laty=41.5)
p676
ssS'148'
p677
(dp678
g10
F-334.26111
sg11
F-1198.40278
sg12
VSBA(lngx=-119.840278,laty=33.426111)
p679
ssS'149'
p680
(dp681
g10
F-411.16667
sg11
F-851.1666700000001
sg12
VFWA(lngx=-85.116667,laty=41.116667)
p682
ssS'77'
p683
(dp684
g10
F-348.95556
sg11
F-822.18889
sg12
VGSP(lngx=-82.218889,laty=34.895556)
p685
ssS'76'
p686
(dp687
g10
F-334.77221999999995
sg11
F-909.85
sg12
VGLH(lngx=-90.985,laty=33.477222)
p688
ssS'75'
p689
(dp690
g10
F-431.18889
sg11
F-776.725
sg12
VROC(lngx=-77.6725,laty=43.118889)
p691
ssS'74'
p692
(dp693
g10
F-406.66666999999995
sg11
F-896.83333
sg12
VPIA(lngx=-89.683333,laty=40.666667)
p694
ssS'73'
p695
(dp696
g10
F-422.08610999999996
sg11
F-759.7972199999999
sg12
VBGM(lngx=-75.979722,laty=42.208611)
p697
ssS'72'
p698
(dp699
g10
F-479.5
sg11
F-971.83333
sg12
VGFK(lngx=-97.183333,laty=47.95)
p700
ssS'71'
p701
(dp702
g10
F-483.16667
sg11
F-1142.66667
sg12
VFCA(lngx=-114.266667,laty=48.316667)
p703
ssS'70'
p704
(dp705
g10
F-299.84444
sg11
F-953.41389
sg12
VIAH(lngx=-95.341389,laty=29.984444)
p706
ssS'79'
p707
(dp708
g10
F-401.93611
sg11
F-767.63333
sg12
VMDT(lngx=-76.763333,laty=40.193611)
p709
ssS'78'
p710
(dp711
g10
F-304.0
sg11
F-890.66667
sg12
VGPT(lngx=-89.066667,laty=30.4)
p712
ssS'227'
p713
(dp714
g10
F-402.83333
sg11
F-794.0
sg12
VLBE(lngx=-79.4,laty=40.283333)
p715
sssS'graph'
p716
(dp717
sS'edge'
p718
(dp719
g8
(dp720
S'200'
p721
(dp722
S'1915'
p723
(dp724
S'id'
p725
g723
ssS'2038'
p726
(dp727
g725
g726
sssS'173'
p728
(dp729
S'2037'
p730
(dp731
g725
g730
ssS'1688'
p732
(dp733
g725
g732
sssS'192'
p734
(dp735
S'1815'
p736
(dp737
g725
g736
ssS'2036'
p738
(dp739
g725
g738
ssssg14
(dp740
S'145'
p741
(dp742
S'2039'
p743
(dp744
g725
g743
sssS'50'
p745
(dp746
S'397'
p747
(dp748
g725
g747
ssS'2040'
p749
(dp750
g725
g749
sssS'41'
p751
(dp752
S'2042'
p753
(dp754
g725
g753
sssS'130'
p755
(dp756
S'1224'
p757
(dp758
g725
g757
ssS'2041'
p759
(dp760
g725
g759
sssg641
(dp761
S'26'
p762
(dp763
g725
g762
sssS'179'
p764
(dp765
S'1720'
p766
(dp767
g725
g766
ssssg17
(dp768
S'50'
p769
(dp770
S'2032'
p771
(dp772
g725
g771
ssS'438'
p773
(dp774
g725
g773
sssS'41'
p775
(dp776
S'249'
p777
(dp778
g725
g777
ssssg20
(dp779
S'164'
p780
(dp781
S'1594'
p782
(dp783
g725
g782
sssS'150'
p784
(dp785
S'2033'
p786
(dp787
g725
g786
sssS'20'
p788
(dp789
S'2034'
p790
(dp791
g725
g790
sssS'50'
p792
(dp793
S'2035'
p794
(dp795
g725
g794
ssS'431'
p796
(dp797
g725
g796
sssS'149'
p798
(dp799
S'1451'
p800
(dp801
g725
g800
ssssg23
(dp802
S'152'
p803
(dp804
S'2017'
p805
(dp806
g725
g805
ssS'1460'
p807
(dp808
g725
g807
sssS'44'
p809
(dp810
S'2016'
p811
(dp812
g725
g811
sssS'130'
p813
(dp814
S'1176'
p815
(dp816
g725
g815
ssS'2019'
p817
(dp818
g725
g817
sssS'111'
p819
(dp820
S'2020'
p821
(dp822
g725
g821
sssS'185'
p823
(dp824
S'1749'
p825
(dp826
g725
g825
sssS'80'
p827
(dp828
S'734'
p829
(dp830
g725
g829
ssS'2018'
p831
(dp832
g725
g831
sssS'87'
p833
(dp834
S'856'
p835
(dp836
g725
g835
ssssg26
(dp837
S'20'
p838
(dp839
S'2027'
p840
(dp841
g725
g840
sssS'154'
p842
(dp843
S'2024'
p844
(dp845
g725
g844
ssS'1482'
p846
(dp847
g725
g846
sssS'37'
p848
(dp849
S'204'
p850
(dp851
g725
g850
sssS'50'
p852
(dp853
S'2028'
p854
(dp855
g725
g854
ssS'362'
p856
(dp857
g725
g856
sssS'41'
p858
(dp859
S'2031'
p860
(dp861
g725
g860
ssS'228'
p862
(dp863
g725
g862
sssS'130'
p864
(dp865
S'2030'
p866
(dp867
g725
g866
ssS'1181'
p868
(dp869
g725
g868
sssS'136'
p870
(dp871
S'1304'
p872
(dp873
g725
g872
ssS'2021'
p874
(dp875
g725
g874
sssS'70'
p876
(dp877
S'571'
p878
(dp879
g725
g878
ssS'2026'
p880
(dp881
g725
g880
sssS'91'
p882
(dp883
S'895'
p884
(dp885
g725
g884
ssS'2022'
p886
(dp887
g725
g886
sssS'69'
p888
(dp889
S'561'
p890
(dp891
g725
g890
sssS'80'
p892
(dp893
S'2029'
p894
(dp895
g725
g894
sssS'87'
p896
(dp897
S'863'
p898
(dp899
g725
g898
ssS'2023'
p900
(dp901
g725
g900
sssS'84'
p902
(dp903
S'2025'
p904
(dp905
g725
g904
ssS'806'
p906
(dp907
g725
g906
sssS'105'
p908
(dp909
S'983'
p910
(dp911
g725
g910
ssssg29
(dp912
S'154'
p913
(dp914
S'2003'
p915
(dp916
g725
g915
ssS'1542'
p917
(dp918
g725
g917
sssS'50'
p919
(dp920
S'2006'
p921
(dp922
g725
g921
ssS'475'
p923
(dp924
g725
g923
sssS'149'
p925
(dp926
S'1452'
p927
(dp928
g725
g927
sssS'111'
p929
(dp930
S'2008'
p931
(dp932
g725
g931
sssS'136'
p933
(dp934
S'1421'
p935
(dp936
g725
g935
sssS'80'
p937
(dp938
S'780'
p939
(dp940
g725
g939
ssS'2007'
p941
(dp942
g725
g941
sssS'119'
p943
(dp944
S'2005'
p945
(dp946
g725
g945
sssS'87'
p947
(dp948
S'2002'
p949
(dp950
g725
g949
sssS'84'
p951
(dp952
S'2004'
p953
(dp954
g725
g953
ssS'841'
p955
(dp956
g725
g955
ssssg32
(dp957
S'20'
p958
(dp959
S'2013'
p960
(dp961
g725
g960
sssS'154'
p962
(dp963
S'1502'
p964
(dp965
g725
g964
ssS'2009'
p966
(dp967
g725
g966
sssS'106'
p968
(dp969
S'2012'
p970
(dp971
g725
g970
sssS'70'
p972
(dp973
S'594'
p974
(dp975
g725
g974
sssS'50'
p976
(dp977
S'2014'
p978
(dp979
g725
g978
ssS'402'
p980
(dp981
g725
g980
sssS'41'
p982
(dp983
S'2015'
p984
(dp985
g725
g984
ssS'274'
p986
(dp987
g725
g986
sssS'134'
p988
(dp989
S'2010'
p990
(dp991
g725
g990
sssS'119'
p992
(dp993
S'1102'
p994
(dp995
g725
g994
sssS'84'
p996
(dp997
S'2011'
p998
(dp999
g725
g998
ssssg35
(dp1000
S'154'
p1001
(dp1002
S'1506'
p1003
(dp1004
g725
g1003
ssS'1598'
p1005
(dp1006
g725
g1005
sssS'50'
p1007
(dp1008
S'1603'
p1009
(dp1010
g725
g1009
ssS'408'
p1011
(dp1012
g725
g1011
sssS'35'
p1013
(dp1014
S'1602'
p1015
(dp1016
g725
g1015
sssS'41'
p1017
(dp1018
S'279'
p1019
(dp1020
g725
g1019
ssS'1605'
p1021
(dp1022
g725
g1021
sssS'70'
p1023
(dp1024
S'1601'
p1025
(dp1026
g725
g1025
ssS'600'
p1027
(dp1028
g725
g1027
sssS'80'
p1029
(dp1030
S'723'
p1031
(dp1032
g725
g1031
ssS'1604'
p1033
(dp1034
g725
g1033
sssS'106'
p1035
(dp1036
S'1600'
p1037
(dp1038
g725
g1037
ssS'998'
p1039
(dp1040
g725
g1039
sssS'84'
p1041
(dp1042
S'1599'
p1043
(dp1044
g725
g1043
ssssg38
(dp1045
S'25'
p1046
(dp1047
S'2045'
p1048
(dp1049
g725
g1048
sssS'59'
p1050
(dp1051
S'2046'
p1052
(dp1053
g725
g1052
sssS'154'
p1054
(dp1055
S'2047'
p1056
(dp1057
g725
g1056
ssS'1509'
p1058
(dp1059
g725
g1058
sssS'192'
p1060
(dp1061
S'2044'
p1062
(dp1063
g725
g1062
ssS'1835'
p1064
(dp1065
g725
g1064
sssS'136'
p1066
(dp1067
S'1350'
p1068
(dp1069
g725
g1068
ssS'2043'
p1070
(dp1071
g725
g1070
sssS'70'
p1072
(dp1073
S'2048'
p1074
(dp1075
g725
g1074
ssS'603'
p1076
(dp1077
g725
g1076
sssS'80'
p1078
(dp1079
S'726'
p1080
(dp1081
g725
g1080
ssS'2049'
p1082
(dp1083
g725
g1082
ssssg41
(dp1084
S'154'
p1085
(dp1086
S'2051'
p1087
(dp1088
g725
g1087
sssS'228'
p1089
(dp1090
S'2085'
p1091
(dp1092
g725
g1091
sssS'50'
p1093
(dp1094
S'2053'
p1095
(dp1096
g725
g1095
ssS'463'
p1097
(dp1098
g725
g1097
sssS'41'
p1099
(dp1100
S'276'
p1101
(dp1102
g725
g1101
ssS'2056'
p1103
(dp1104
g725
g1103
sssS'131'
p1105
(dp1106
S'1258'
p1107
(dp1108
g725
g1107
sssS'130'
p1109
(dp1110
S'1237'
p1111
(dp1112
g725
g1111
ssS'2055'
p1113
(dp1114
g725
g1113
sssS'136'
p1115
(dp1116
S'2050'
p1117
(dp1118
g725
g1117
ssS'1405'
p1119
(dp1120
g725
g1119
sssS'70'
p1121
(dp1122
S'629'
p1123
(dp1124
g725
g1123
ssS'2052'
p1125
(dp1126
g725
g1125
sssS'82'
p1127
(dp1128
S'791'
p1129
(dp1130
g725
g1129
sssS'80'
p1131
(dp1132
S'768'
p1133
(dp1134
g725
g1133
sssS'34'
p1135
(dp1136
S'2054'
p1137
(dp1138
g725
g1137
sssS'171'
p1139
(dp1140
S'1646'
p1141
(dp1142
g725
g1141
ssssg44
(dp1143
S'46'
p1144
(dp1145
S'322'
p1146
(dp1147
g725
g1146
ssS'1272'
p1148
(dp1149
g725
g1148
sssS'10'
p1150
(dp1151
S'60'
p1152
(dp1153
g725
g1152
sssS'130'
p1154
(dp1155
S'1190'
p1156
(dp1157
g725
g1156
ssS'1273'
p1158
(dp1159
g725
g1158
sssS'136'
p1160
(dp1161
S'1271'
p1162
(dp1163
g725
g1162
ssS'1312'
p1164
(dp1165
g725
g1164
sssS'70'
p1166
(dp1167
S'577'
p1168
(dp1169
g725
g1168
ssssg47
(dp1170
S'20'
p1171
(dp1172
S'1264'
p1173
(dp1174
g725
g1173
sssS'154'
p1175
(dp1176
S'1533'
p1177
(dp1178
g725
g1177
ssS'1259'
p1179
(dp1180
g725
g1179
sssS'48'
p1181
(dp1182
S'1261'
p1183
(dp1184
g725
g1183
ssS'340'
p1185
(dp1186
g725
g1185
sssS'45'
p1187
(dp1188
S'318'
p1189
(dp1190
g725
g1189
sssS'136'
p1191
(dp1192
S'1400'
p1193
(dp1194
g725
g1193
ssS'1267'
p1195
(dp1196
g725
g1195
sssS'50'
p1197
(dp1198
S'459'
p1199
(dp1200
g725
g1199
ssS'1262'
p1201
(dp1202
g725
g1201
sssS'41'
p1203
(dp1204
S'269'
p1205
(dp1206
g725
g1205
sssS'130'
p1207
(dp1208
S'1265'
p1209
(dp1210
g725
g1209
ssS'1232'
p1211
(dp1212
g725
g1211
sssg116
(dp1213
S'22'
p1214
(dp1215
g725
g1214
sssS'70'
p1216
(dp1217
S'1268'
p1218
(dp1219
g725
g1218
ssS'627'
p1220
(dp1221
g725
g1220
sssS'91'
p1222
(dp1223
S'894'
p1224
(dp1225
g725
g1224
ssS'1266'
p1226
(dp1227
g725
g1226
sssS'80'
p1228
(dp1229
S'1269'
p1230
(dp1231
g725
g1230
ssS'765'
p1232
(dp1233
g725
g1232
sssS'118'
p1234
(dp1235
S'1270'
p1236
(dp1237
g725
g1236
ssS'1083'
p1238
(dp1239
g725
g1238
sssS'84'
p1240
(dp1241
S'1260'
p1242
(dp1243
g725
g1242
sssS'163'
p1244
(dp1245
S'1263'
p1246
(dp1247
g725
g1246
ssS'1586'
p1248
(dp1249
g725
g1248
ssssg50
(dp1250
S'207'
p1251
(dp1252
S'1994'
p1253
(dp1254
g725
g1253
sssS'44'
p1255
(dp1256
S'296'
p1257
(dp1258
g725
g1257
sssS'50'
p1259
(dp1260
S'373'
p1261
(dp1262
g725
g1261
ssS'1255'
p1263
(dp1264
g725
g1263
sssS'219'
p1265
g1106
sS'130'
p1266
(dp1267
S'1257'
p1268
(dp1269
g725
g1268
ssS'1195'
p1270
(dp1271
g725
g1270
sssS'80'
p1272
(dp1273
S'1256'
p1274
(dp1275
g725
g1274
ssS'700'
p1276
(dp1277
g725
g1276
sssS'41'
p1278
(dp1279
S'239'
p1280
(dp1281
g725
g1280
sssS'163'
p1282
(dp1283
S'1578'
p1284
(dp1285
g725
g1284
ssssg53
(dp1286
S'217'
p1287
g756
sS'212'
p1288
g814
sS'213'
p1289
g865
sS'219'
p1290
g1110
sS'133'
p1291
g1155
sS'132'
p1292
g1208
sS'131'
p1293
g1267
sS'136'
p1294
(dp1295
S'1348'
p1296
(dp1297
g725
g1296
ssS'1222'
p1298
(dp1299
g725
g1298
sssS'138'
p1300
(dp1301
S'1249'
p1302
(dp1303
g725
g1302
ssS'1428'
p1304
(dp1305
g725
g1304
sssS'25'
p1306
(dp1307
S'1171'
p1308
(dp1309
g725
g1308
sssS'22'
p1310
(dp1311
S'1218'
p1312
(dp1313
g725
g1312
ssS'126'
p1314
(dp1315
g725
g1314
sssg113
(dp1316
g641
(dp1317
g725
g641
ssS'1231'
p1318
(dp1319
g725
g1318
sssS'96'
p1320
(dp1321
S'921'
p1322
(dp1323
g725
g1322
ssS'1240'
p1324
(dp1325
g725
g1324
sssS'120'
p1326
(dp1327
S'1230'
p1328
(dp1329
g725
g1328
ssS'1114'
p1330
(dp1331
g725
g1330
sssS'122'
p1332
(dp1333
S'1234'
p1334
(dp1335
g725
g1334
ssS'1123'
p1336
(dp1337
g725
g1336
sssS'127'
p1338
(dp1339
S'1146'
p1340
(dp1341
g725
g1340
ssS'1253'
p1342
(dp1343
g725
g1342
sssS'128'
p1344
(dp1345
S'1242'
p1346
(dp1347
g725
g1346
ssS'1159'
p1348
(dp1349
g725
g1348
sssS'118'
p1350
(dp1351
S'1094'
p1352
(dp1353
g725
g1352
ssS'1187'
p1354
(dp1355
g725
g1354
sssS'59'
p1356
(dp1357
S'1200'
p1358
(dp1359
g725
g1358
ssS'508'
p1360
(dp1361
g725
g1360
sssS'55'
p1362
(dp1363
S'492'
p1364
(dp1365
g725
g1364
ssS'1170'
p1366
(dp1367
g725
g1366
sssS'50'
p1368
(dp1369
S'410'
p1370
(dp1371
g725
g1370
ssS'1178'
p1372
(dp1373
g725
g1372
sssS'198'
p1374
(dp1375
S'1225'
p1376
(dp1377
g725
g1376
ssS'1891'
p1378
(dp1379
g725
g1378
sssS'190'
p1380
(dp1381
S'1789'
p1382
(dp1383
g725
g1382
ssS'1228'
p1384
(dp1385
g725
g1384
sssS'193'
p1386
(dp1387
S'1850'
p1388
(dp1389
g725
g1388
ssS'1194'
p1390
(dp1391
g725
g1390
sssS'115'
p1392
(dp1393
S'1058'
p1394
(dp1395
g725
g1394
ssS'1243'
p1396
(dp1397
g725
g1396
sssS'111'
p1398
(dp1399
S'1037'
p1400
(dp1401
g725
g1400
ssS'1203'
p1402
(dp1403
g725
g1402
sssS'110'
p1404
(dp1405
S'1205'
p1406
(dp1407
g725
g1406
ssS'1031'
p1408
(dp1409
g725
g1408
sssS'113'
p1410
(dp1411
S'1050'
p1412
(dp1413
g725
g1412
ssS'1251'
p1414
(dp1415
g725
g1414
sssS'69'
p1416
(dp1417
S'1198'
p1418
(dp1419
g725
g1418
ssS'557'
p1420
(dp1421
g725
g1420
sssS'82'
p1422
(dp1423
S'1250'
p1424
(dp1425
g725
g1424
sssS'80'
p1426
(dp1427
S'1235'
p1428
(dp1429
g725
g1428
ssS'724'
p1430
(dp1431
g725
g1430
sssS'81'
p1432
(dp1433
S'1174'
p1434
(dp1435
g725
g1434
ssS'782'
p1436
(dp1437
g725
g1436
sssS'86'
p1438
(dp1439
S'1252'
p1440
(dp1441
g725
g1440
ssS'848'
p1442
(dp1443
g725
g1442
sssS'87'
p1444
(dp1445
S'877'
p1446
(dp1447
g725
g1446
ssS'1193'
p1448
(dp1449
g725
g1448
sssS'84'
p1450
(dp1451
S'1207'
p1452
(dp1453
g725
g1452
ssS'826'
p1454
(dp1455
g725
g1454
sssS'109'
p1456
(dp1457
S'1018'
p1458
(dp1459
g725
g1458
ssS'1229'
p1460
(dp1461
g725
g1460
sssS'101'
p1462
(dp1463
S'1227'
p1464
(dp1465
g725
g1464
sssS'106'
p1466
(dp1467
S'1175'
p1468
(dp1469
g725
g1468
ssS'999'
p1470
(dp1471
g725
g1470
sssS'105'
p1472
(dp1473
S'982'
p1474
(dp1475
g725
g1474
ssS'1204'
p1476
(dp1477
g725
g1476
sssS'37'
p1478
(dp1479
S'203'
p1480
(dp1481
g725
g1480
ssS'1236'
p1482
(dp1483
g725
g1482
sssS'35'
p1484
(dp1485
S'189'
p1486
(dp1487
g725
g1486
ssS'1201'
p1488
(dp1489
g725
g1488
sssS'34'
p1490
(dp1491
S'1179'
p1492
(dp1493
g725
g1492
ssS'184'
p1494
(dp1495
g725
g1494
sssS'61'
p1496
(dp1497
S'519'
p1498
(dp1499
g725
g1498
ssS'1239'
p1500
(dp1501
g725
g1500
sssS'65'
p1502
(dp1503
S'1241'
p1504
(dp1505
g725
g1504
ssS'540'
p1506
(dp1507
g725
g1506
sssS'179'
p1508
(dp1509
S'1723'
p1510
(dp1511
g725
g1510
ssS'1202'
p1512
(dp1513
g725
g1512
sssS'176'
p1514
(dp1515
S'1245'
p1516
(dp1517
g725
g1516
ssS'1707'
p1518
(dp1519
g725
g1518
sssS'175'
p1520
(dp1521
S'1700'
p1522
(dp1523
g725
g1522
ssS'1219'
p1524
(dp1525
g725
g1524
sssS'172'
p1526
(dp1527
S'1652'
p1528
(dp1529
g725
g1528
ssS'1183'
p1530
(dp1531
g725
g1530
sssS'171'
p1532
(dp1533
S'1639'
p1534
(dp1535
g725
g1534
ssS'1196'
p1536
(dp1537
g725
g1536
sssS'182'
p1538
(dp1539
S'1169'
p1540
(dp1541
g725
g1540
ssS'1737'
p1542
(dp1543
g725
g1542
sssS'180'
p1544
(dp1545
S'1186'
p1546
(dp1547
g725
g1546
ssS'1727'
p1548
(dp1549
g725
g1548
sssS'185'
p1550
(dp1551
S'1753'
p1552
(dp1553
g725
g1552
ssS'1233'
p1554
(dp1555
g725
g1554
sssS'189'
p1556
(dp1557
S'1771'
p1558
(dp1559
g725
g1558
ssS'1244'
p1560
(dp1561
g725
g1560
sssS'168'
p1562
(dp1563
S'1615'
p1564
(dp1565
g725
g1564
ssS'1197'
p1566
(dp1567
g725
g1566
sssS'169'
p1568
(dp1569
S'1629'
p1570
(dp1571
g725
g1570
ssS'1208'
p1572
(dp1573
g725
g1572
sssS'229'
p1574
(dp1575
S'1209'
p1576
(dp1577
g725
g1576
ssS'2090'
p1578
(dp1579
g725
g1578
sssS'228'
p1580
(dp1581
S'2084'
p1582
(dp1583
g725
g1582
sssS'92'
p1584
(dp1585
S'899'
p1586
(dp1587
g725
g1586
sssS'223'
p1588
(dp1589
S'2067'
p1590
(dp1591
g725
g1590
sssS'97'
p1592
(dp1593
S'931'
p1594
(dp1595
g725
g1594
ssS'1217'
p1596
(dp1597
g725
g1596
sssS'163'
p1598
(dp1599
S'1210'
p1600
(dp1601
g725
g1600
ssS'1581'
p1602
(dp1603
g725
g1602
sssS'11'
p1604
(dp1605
S'69'
p1606
(dp1607
g725
g1606
ssS'1173'
p1608
(dp1609
g725
g1608
sssS'10'
p1610
(dp1611
S'1216'
p1612
(dp1613
g725
g1612
ssS'59'
p1614
(dp1615
g725
g1614
sssS'13'
p1616
(dp1617
S'1226'
p1618
(dp1619
g725
g1618
ssS'80'
p1620
(dp1621
g725
g1620
sssS'14'
p1622
(dp1623
S'1180'
p1624
(dp1625
g725
g1624
ssS'85'
p1626
(dp1627
g725
g1626
sssS'19'
p1628
(dp1629
S'1192'
p1630
(dp1631
g725
g1630
ssS'106'
p1632
(dp1633
g725
g1632
sssS'18'
p1634
(dp1635
S'97'
p1636
(dp1637
g725
g1636
sssS'152'
p1638
(dp1639
S'1213'
p1640
(dp1641
g725
g1640
ssS'1464'
p1642
(dp1643
g725
g1642
sssS'154'
p1644
(dp1645
S'1172'
p1646
(dp1647
g725
g1646
ssS'1507'
p1648
(dp1649
g725
g1648
sssS'159'
p1650
(dp1651
S'1558'
p1652
(dp1653
g725
g1652
ssS'1223'
p1654
(dp1655
g725
g1654
sssS'48'
p1656
(dp1657
S'1212'
p1658
(dp1659
g725
g1658
ssS'331'
p1660
(dp1661
g725
g1660
sssS'49'
p1662
(dp1663
S'1206'
p1664
(dp1665
g725
g1664
ssS'351'
p1666
(dp1667
g725
g1666
sssS'46'
p1668
(dp1669
S'321'
p1670
(dp1671
g725
g1670
ssS'1215'
p1672
(dp1673
g725
g1672
sssS'119'
p1674
(dp1675
S'1211'
p1676
(dp1677
g725
g1676
ssS'1103'
p1678
(dp1679
g725
g1678
sssS'44'
p1680
(dp1681
S'1214'
p1682
(dp1683
g725
g1682
ssS'298'
p1684
(dp1685
g725
g1684
sssS'45'
p1686
(dp1687
S'311'
p1688
(dp1689
g725
g1688
ssS'1246'
p1690
(dp1691
g725
g1690
sssS'41'
p1692
(dp1693
S'281'
p1694
(dp1695
g725
g1694
ssS'1182'
p1696
(dp1697
g725
g1696
sssg641
(dp1698
S'27'
p1699
(dp1700
g725
g1699
ssS'1221'
p1701
(dp1702
g725
g1701
sssg644
(dp1703
S'1199'
p1704
(dp1705
g725
g1704
ssS'44'
p1706
(dp1707
g725
g1706
sssS'201'
p1708
(dp1709
S'1238'
p1710
(dp1711
g725
g1710
ssS'1947'
p1712
(dp1713
g725
g1712
sssS'200'
p1714
(dp1715
S'1185'
p1716
(dp1717
g725
g1716
ssS'1938'
p1718
(dp1719
g725
g1718
sssS'203'
p1720
(dp1721
S'1248'
p1722
(dp1723
g725
g1722
ssS'1956'
p1724
(dp1725
g725
g1724
sssS'145'
p1726
(dp1727
S'1177'
p1728
(dp1729
g725
g1728
ssS'1441'
p1730
(dp1731
g725
g1730
sssS'205'
p1732
(dp1733
S'1191'
p1734
(dp1735
g725
g1734
ssS'1976'
p1736
(dp1737
g725
g1736
sssS'207'
p1738
(dp1739
S'1997'
p1740
(dp1741
g725
g1740
ssS'1189'
p1742
(dp1743
g725
g1742
sssS'77'
p1744
(dp1745
S'1254'
p1746
(dp1747
g725
g1746
ssS'670'
p1748
(dp1749
g725
g1748
sssS'76'
p1750
(dp1751
S'663'
p1752
(dp1753
g725
g1752
ssS'1188'
p1754
(dp1755
g725
g1754
sssS'70'
p1756
(dp1757
S'1184'
p1758
(dp1759
g725
g1758
ssS'601'
p1760
(dp1761
g725
g1760
sssS'79'
p1762
(dp1763
S'1220'
p1764
(dp1765
g725
g1764
sssS'78'
p1766
(dp1767
S'677'
p1768
(dp1769
g725
g1768
ssS'1247'
p1770
(dp1771
g725
g1770
ssssg56
(dp1772
S'200'
p1773
(dp1774
S'1897'
p1775
(dp1776
g725
g1775
ssS'1424'
p1777
(dp1778
g725
g1777
sssS'136'
p1779
(dp1780
S'1423'
p1781
(dp1782
g725
g1781
ssS'1296'
p1783
(dp1784
g725
g1783
sssS'171'
p1785
(dp1786
S'1425'
p1787
(dp1788
g725
g1787
sssS'192'
p1789
(dp1790
S'1422'
p1791
(dp1792
g725
g1791
ssS'1801'
p1793
(dp1794
g725
g1793
ssssg59
(dp1795
S'224'
p1796
(dp1797
S'1367'
p1798
(dp1799
g725
g1798
ssS'2074'
p1800
(dp1801
g725
g1800
sssS'213'
p1802
g871
sS'210'
p1803
g934
sS'218'
p1804
g1067
sS'219'
p1805
g1116
sS'133'
p1806
g1161
sS'132'
p1807
g1192
sS'130'
p1808
g1295
sS'137'
p1809
g1780
sS'135'
p1810
(dp1811
S'1286'
p1812
(dp1813
g725
g1812
ssS'1415'
p1814
(dp1815
g725
g1814
sssS'134'
p1816
(dp1817
S'1275'
p1818
(dp1819
g725
g1818
ssS'1338'
p1820
(dp1821
g725
g1820
sssS'225'
p1822
(dp1823
S'2076'
p1824
(dp1825
g725
g1824
ssS'1416'
p1826
(dp1827
g725
g1826
sssS'24'
p1828
(dp1829
S'1343'
p1830
(dp1831
g725
g1830
ssS'134'
p1832
(dp1833
g725
g1832
sssS'25'
p1834
(dp1835
S'1293'
p1836
(dp1837
g725
g1836
ssS'143'
p1838
(dp1839
g725
g1838
sssS'26'
p1840
(dp1841
S'151'
p1842
(dp1843
g725
g1842
ssS'1418'
p1844
(dp1845
g725
g1844
sssS'27'
p1846
(dp1847
S'154'
p1848
(dp1849
g725
g1848
sssS'20'
p1850
(dp1851
S'108'
p1852
(dp1853
g725
g1852
ssS'1359'
p1854
(dp1855
g725
g1854
sssS'21'
p1856
(dp1857
S'115'
p1858
(dp1859
g725
g1858
ssS'1390'
p1860
(dp1861
g725
g1860
sssg113
(dp1862
g113
(dp1863
g725
g113
ssS'1398'
p1864
(dp1865
g725
g1864
sssg116
(dp1866
S'19'
p1867
(dp1868
g725
g1867
ssS'1388'
p1869
(dp1870
g725
g1869
sssg119
(dp1871
S'33'
p1872
(dp1873
g725
g1872
ssS'1354'
p1874
(dp1875
g725
g1874
sssS'120'
p1876
(dp1877
S'1118'
p1878
(dp1879
g725
g1878
ssS'1396'
p1880
(dp1881
g725
g1880
sssS'124'
p1882
(dp1883
S'1420'
p1884
(dp1885
g725
g1884
ssS'1131'
p1886
(dp1887
g725
g1886
sssS'125'
p1888
(dp1889
S'1133'
p1890
(dp1891
g725
g1890
ssS'1302'
p1892
(dp1893
g725
g1892
sssS'127'
p1894
(dp1895
S'1419'
p1896
(dp1897
g725
g1896
ssS'1148'
p1898
(dp1899
g725
g1898
sssS'128'
p1900
(dp1901
S'1406'
p1902
(dp1903
g725
g1902
ssS'1163'
p1904
(dp1905
g725
g1904
sssS'118'
p1906
(dp1907
S'1078'
p1908
(dp1909
g725
g1908
ssS'1310'
p1910
(dp1911
g725
g1910
sssS'59'
p1912
(dp1913
S'1378'
p1914
(dp1915
g725
g1914
ssS'501'
p1916
(dp1917
g725
g1916
sssS'54'
p1918
(dp1919
S'1322'
p1920
(dp1921
g725
g1920
ssS'489'
p1922
(dp1923
g725
g1922
sssS'51'
p1924
(dp1925
S'1373'
p1926
(dp1927
g725
g1926
ssS'476'
p1928
(dp1929
g725
g1928
sssS'50'
p1930
(dp1931
S'449'
p1932
(dp1933
g725
g1932
ssS'1360'
p1934
(dp1935
g725
g1934
sssS'53'
p1936
(dp1937
S'1414'
p1938
(dp1939
g725
g1938
ssS'480'
p1940
(dp1941
g725
g1940
sssS'199'
p1942
(dp1943
S'1356'
p1944
(dp1945
g725
g1944
ssS'1892'
p1946
(dp1947
g725
g1946
sssS'198'
p1948
(dp1949
S'1885'
p1950
(dp1951
g725
g1950
ssS'1394'
p1952
(dp1953
g725
g1952
sssS'147'
p1954
(dp1955
S'1340'
p1956
(dp1957
g725
g1956
ssS'1446'
p1958
(dp1959
g725
g1958
sssS'195'
p1960
(dp1961
S'1868'
p1962
(dp1963
g725
g1962
ssS'1392'
p1964
(dp1965
g725
g1964
sssS'194'
p1966
(dp1967
S'1305'
p1968
(dp1969
g725
g1968
ssS'1859'
p1970
(dp1971
g725
g1970
sssS'191'
p1972
(dp1973
S'1370'
p1974
(dp1975
g725
g1974
ssS'1792'
p1976
(dp1977
g725
g1976
sssS'193'
p1978
(dp1979
S'1843'
p1980
(dp1981
g725
g1980
ssS'1374'
p1982
(dp1983
g725
g1982
sssS'192'
p1984
(dp1985
S'1825'
p1986
(dp1987
g725
g1986
ssS'1315'
p1988
(dp1989
g725
g1988
sssS'115'
p1990
(dp1991
S'1059'
p1992
(dp1993
g725
g1992
ssS'1407'
p1994
(dp1995
g725
g1994
sssS'114'
p1996
(dp1997
S'1051'
p1998
(dp1999
g725
g1998
ssS'1321'
p2000
(dp2001
g725
g2000
sssS'111'
p2002
(dp2003
S'1042'
p2004
(dp2005
g725
g2004
ssS'1323'
p2006
(dp2007
g725
g2006
sssS'176'
p2008
(dp2009
S'1349'
p2010
(dp2011
g725
g2010
ssS'1710'
p2012
(dp2013
g725
g2012
sssS'82'
p2014
(dp2015
S'785'
p2016
(dp2017
g725
g2016
ssS'1352'
p2018
(dp2019
g725
g2018
sssS'83'
p2020
(dp2021
S'1411'
p2022
(dp2023
g725
g2022
ssS'793'
p2024
(dp2025
g725
g2024
sssS'80'
p2026
(dp2027
S'1402'
p2028
(dp2029
g725
g2028
ssS'758'
p2030
(dp2031
g725
g2030
sssS'119'
p2032
(dp2033
S'1328'
p2034
(dp2035
g725
g2034
ssS'1097'
p2036
(dp2037
g725
g2036
sssS'87'
p2038
(dp2039
S'1372'
p2040
(dp2041
g725
g2040
ssS'865'
p2042
(dp2043
g725
g2042
sssS'84'
p2044
(dp2045
S'1326'
p2046
(dp2047
g725
g2046
ssS'807'
p2048
(dp2049
g725
g2048
sssS'85'
p2050
(dp2051
S'842'
p2052
(dp2053
g725
g2052
ssS'1333'
p2054
(dp2055
g725
g2054
sssS'207'
p2056
(dp2057
S'1990'
p2058
(dp2059
g725
g2058
ssS'1311'
p2060
(dp2061
g725
g2060
sssS'141'
p2062
(dp2063
S'1432'
p2064
(dp2065
g725
g2064
ssS'1417'
p2066
(dp2067
g725
g2066
sssS'226'
p2068
(dp2069
S'2078'
p2070
(dp2071
g725
g2070
ssS'1325'
p2072
(dp2073
g725
g2072
sssS'181'
p2074
(dp2075
S'1353'
p2076
(dp2077
g725
g2076
ssS'1730'
p2078
(dp2079
g725
g2078
sssS'109'
p2080
(dp2081
S'1395'
p2082
(dp2083
g725
g2082
ssS'1020'
p2084
(dp2085
g725
g2084
sssS'102'
p2086
(dp2087
S'1345'
p2088
(dp2089
g725
g2088
ssS'956'
p2090
(dp2091
g725
g2090
sssS'103'
p2092
(dp2093
S'964'
p2094
(dp2095
g725
g2094
ssS'1295'
p2096
(dp2097
g725
g2096
sssS'101'
p2098
(dp2099
S'946'
p2100
(dp2101
g725
g2100
ssS'1339'
p2102
(dp2103
g725
g2102
sssS'106'
p2104
(dp2105
S'1003'
p2106
(dp2107
g725
g2106
ssS'1297'
p2108
(dp2109
g725
g2108
sssS'104'
p2110
(dp2111
S'1397'
p2112
(dp2113
g725
g2112
ssS'970'
p2114
(dp2115
g725
g2114
sssS'105'
p2116
(dp2117
S'1382'
p2118
(dp2119
g725
g2118
ssS'984'
p2120
(dp2121
g725
g2120
sssS'39'
p2122
(dp2123
S'216'
p2124
(dp2125
g725
g2124
ssS'1341'
p2126
(dp2127
g725
g2126
sssS'33'
p2128
(dp2129
S'176'
p2130
(dp2131
g725
g2130
ssS'1385'
p2132
(dp2133
g725
g2132
sssS'31'
p2134
(dp2135
S'1366'
p2136
(dp2137
g725
g2136
ssS'172'
p2138
(dp2139
g725
g2138
sssS'30'
p2140
(dp2141
S'165'
p2142
(dp2143
g725
g2142
ssS'1399'
p2144
(dp2145
g725
g2144
sssS'37'
p2146
(dp2147
S'1344'
p2148
(dp2149
g725
g2148
ssS'205'
p2150
(dp2151
g725
g2150
sssS'36'
p2152
(dp2153
S'196'
p2154
(dp2155
g725
g2154
ssS'1375'
p2156
(dp2157
g725
g2156
sssS'35'
p2158
(dp2159
S'1379'
p2160
(dp2161
g725
g2160
ssS'192'
p2162
(dp2163
g725
g2162
sssS'34'
p2164
(dp2165
S'1299'
p2166
(dp2167
g725
g2166
ssS'178'
p2168
(dp2169
g725
g2168
sssS'62'
p2170
(dp2171
S'1371'
p2172
(dp2173
g725
g2172
ssS'522'
p2174
(dp2175
g725
g2174
sssS'63'
p2176
(dp2177
S'525'
p2178
(dp2179
g725
g2178
ssS'1313'
p2180
(dp2181
g725
g2180
sssS'64'
p2182
(dp2183
S'1300'
p2184
(dp2185
g725
g2184
ssS'528'
p2186
(dp2187
g725
g2186
sssS'65'
p2188
(dp2189
S'1346'
p2190
(dp2191
g725
g2190
ssS'530'
p2192
(dp2193
g725
g2192
sssS'68'
p2194
(dp2195
S'1409'
p2196
(dp2197
g725
g2196
ssS'546'
p2198
(dp2199
g725
g2198
sssS'69'
p2200
(dp2201
S'563'
p2202
(dp2203
g725
g2202
ssS'1318'
p2204
(dp2205
g725
g2204
sssS'175'
p2206
(dp2207
S'1696'
p2208
(dp2209
g725
g2208
ssS'1334'
p2210
(dp2211
g725
g2210
sssS'173'
p2212
(dp2213
S'1412'
p2214
(dp2215
g725
g2214
ssS'1670'
p2216
(dp2217
g725
g2216
sssS'172'
p2218
(dp2219
S'1368'
p2220
(dp2221
g725
g2220
ssS'1655'
p2222
(dp2223
g725
g2222
sssS'171'
p2224
(dp2225
S'1316'
p2226
(dp2227
g725
g2226
ssS'1641'
p2228
(dp2229
g725
g2228
sssS'170'
p2230
(dp2231
S'1632'
p2232
(dp2233
g725
g2232
ssS'1363'
p2234
(dp2235
g725
g2234
sssg437
(dp2236
S'1410'
p2237
(dp2238
g725
g2237
ssS'10'
p2239
(dp2240
g725
g2239
sssS'185'
p2241
(dp2242
S'1745'
p2243
(dp2244
g725
g2243
ssS'1401'
p2245
(dp2246
g725
g2245
sssS'189'
p2247
(dp2248
S'1776'
p2249
(dp2250
g725
g2249
ssS'1347'
p2251
(dp2252
g725
g2251
sssS'99'
p2253
(dp2254
S'942'
p2255
(dp2256
g725
g2255
ssS'1381'
p2257
(dp2258
g725
g2257
sssS'98'
p2259
(dp2260
S'933'
p2261
(dp2262
g725
g2261
ssS'1355'
p2263
(dp2264
g725
g2263
sssS'168'
p2265
(dp2266
S'1317'
p2267
(dp2268
g725
g2267
ssS'1618'
p2269
(dp2270
g725
g2269
sssS'169'
p2271
(dp2272
S'1622'
p2273
(dp2274
g725
g2273
ssS'1327'
p2275
(dp2276
g725
g2275
sssS'229'
p2277
(dp2278
S'1384'
p2279
(dp2280
g725
g2279
ssS'2086'
p2281
(dp2282
g725
g2281
sssS'164'
p2283
(dp2284
S'1362'
p2285
(dp2286
g725
g2285
ssS'1590'
p2287
(dp2288
g725
g2287
sssS'90'
p2289
(dp2290
S'889'
p2291
(dp2292
g725
g2291
ssS'1365'
p2293
(dp2294
g725
g2293
sssS'93'
p2295
(dp2296
S'900'
p2297
(dp2298
g725
g2297
ssS'1332'
p2299
(dp2300
g725
g2299
sssS'92'
p2301
(dp2302
S'896'
p2303
(dp2304
g725
g2303
ssS'1303'
p2305
(dp2306
g725
g2305
sssS'223'
p2307
(dp2308
S'2069'
p2309
(dp2310
g725
g2309
ssS'1383'
p2311
(dp2312
g725
g2311
sssS'161'
p2313
(dp2314
S'1408'
p2315
(dp2316
g725
g2315
ssS'1566'
p2317
(dp2318
g725
g2317
sssS'97'
p2319
(dp2320
S'923'
p2321
(dp2322
g725
g2321
ssS'1391'
p2323
(dp2324
g725
g2323
sssS'163'
p2325
(dp2326
S'1583'
p2327
(dp2328
g725
g2327
ssS'1330'
p2329
(dp2330
g725
g2329
sssS'11'
p2331
(dp2332
S'1294'
p2333
(dp2334
g725
g2333
ssS'71'
p2335
(dp2336
g725
g2335
sssS'10'
p2337
(dp2338
S'51'
p2339
(dp2340
g725
g2339
ssS'1389'
p2341
(dp2342
g725
g2341
sssS'16'
p2343
(dp2344
S'1320'
p2345
(dp2346
g725
g2345
ssS'87'
p2347
(dp2348
g725
g2347
sssS'18'
p2349
(dp2350
S'91'
p2351
(dp2352
g725
g2351
ssS'1337'
p2353
(dp2354
g725
g2353
sssS'151'
p2355
(dp2356
S'1454'
p2357
(dp2358
g725
g2357
ssS'1298'
p2359
(dp2360
g725
g2359
sssS'153'
p2361
(dp2362
S'1473'
p2363
(dp2364
g725
g2363
ssS'1386'
p2365
(dp2366
g725
g2365
sssS'152'
p2367
(dp2368
S'1467'
p2369
(dp2370
g725
g2369
ssS'1331'
p2371
(dp2372
g725
g2371
sssS'154'
p2373
(dp2374
S'1358'
p2375
(dp2376
g725
g2375
ssS'1529'
p2377
(dp2378
g725
g2377
sssS'157'
p2379
(dp2380
S'1546'
p2381
(dp2382
g725
g2381
ssS'1306'
p2383
(dp2384
g725
g2383
sssS'159'
p2385
(dp2386
S'1336'
p2387
(dp2388
g725
g2387
ssS'1554'
p2389
(dp2390
g725
g2389
sssS'233'
p2391
(dp2392
S'2097'
p2393
(dp2394
g725
g2393
ssS'1369'
p2395
(dp2396
g725
g2395
sssS'48'
p2397
(dp2398
S'1329'
p2399
(dp2400
g725
g2399
ssS'333'
p2401
(dp2402
g725
g2401
sssS'49'
p2403
(dp2404
S'1324'
p2405
(dp2406
g725
g2405
ssS'343'
p2407
(dp2408
g725
g2407
sssS'44'
p2409
(dp2410
S'302'
p2411
(dp2412
g725
g2411
ssS'1387'
p2413
(dp2414
g725
g2413
sssS'45'
p2415
(dp2416
S'1351'
p2417
(dp2418
g725
g2417
ssS'314'
p2419
(dp2420
g725
g2419
sssS'43'
p2421
(dp2422
S'1307'
p2423
(dp2424
g725
g2423
ssS'290'
p2425
(dp2426
g725
g2425
sssS'40'
p2427
(dp2428
S'1380'
p2429
(dp2430
g725
g2429
ssS'218'
p2431
(dp2432
g725
g2431
sssS'41'
p2433
(dp2434
S'261'
p2435
(dp2436
g725
g2435
ssS'1364'
p2437
(dp2438
g725
g2437
sssg644
(dp2439
S'46'
p2440
(dp2441
g725
g2440
ssS'1377'
p2442
(dp2443
g725
g2442
sssS'146'
p2444
(dp2445
S'1342'
p2446
(dp2447
g725
g2446
ssS'1442'
p2448
(dp2449
g725
g2448
sssS'200'
p2450
(dp2451
S'1924'
p2452
(dp2453
g725
g2452
ssS'1309'
p2454
(dp2455
g725
g2454
sssS'203'
p2456
(dp2457
S'1413'
p2458
(dp2459
g725
g2458
ssS'1961'
p2460
(dp2461
g725
g2460
sssS'202'
p2462
(dp2463
S'1948'
p2464
(dp2465
g725
g2464
ssS'1357'
p2466
(dp2467
g725
g2466
sssS'205'
p2468
(dp2469
S'1314'
p2470
(dp2471
g725
g2470
ssS'1981'
p2472
(dp2473
g725
g2472
sssS'204'
p2474
(dp2475
S'1965'
p2476
(dp2477
g725
g2476
ssS'1404'
p2478
(dp2479
g725
g2478
sssS'140'
p2480
(dp2481
S'1301'
p2482
(dp2483
g725
g2482
ssS'1430'
p2484
(dp2485
g725
g2484
sssS'206'
p2486
(dp2487
S'1986'
p2488
(dp2489
g725
g2488
ssS'1376'
p2490
(dp2491
g725
g2490
sssS'75'
p2492
(dp2493
S'652'
p2494
(dp2495
g725
g2494
ssS'1361'
p2496
(dp2497
g725
g2496
sssS'74'
p2498
(dp2499
S'1335'
p2500
(dp2501
g725
g2500
ssS'648'
p2502
(dp2503
g725
g2502
sssS'72'
p2504
(dp2505
S'642'
p2506
(dp2507
g725
g2506
ssS'1319'
p2508
(dp2509
g725
g2508
sssS'71'
p2510
(dp2511
S'1403'
p2512
(dp2513
g725
g2512
ssS'639'
p2514
(dp2515
g725
g2514
sssS'70'
p2516
(dp2517
S'1308'
p2518
(dp2519
g725
g2518
ssS'624'
p2520
(dp2521
g725
g2520
sssS'79'
p2522
(dp2523
S'1393'
p2524
(dp2525
g725
g2524
ssS'678'
p2526
(dp2527
g725
g2526
ssssg62
(dp2528
S'200'
p2529
(dp2530
S'1943'
p2531
(dp2532
g725
g2531
ssS'1289'
p2533
(dp2534
g725
g2533
sssS'154'
p2535
(dp2536
S'1287'
p2537
(dp2538
g725
g2537
ssS'1540'
p2539
(dp2540
g725
g2539
sssS'10'
p2541
(dp2542
S'1291'
p2543
(dp2544
g725
g2543
sssS'70'
p2545
(dp2546
S'1288'
p2547
(dp2548
g725
g2547
ssS'636'
p2549
(dp2550
g725
g2549
sssS'192'
p2551
(dp2552
S'1284'
p2553
(dp2554
g725
g2553
ssS'1840'
p2555
(dp2556
g725
g2555
sssS'136'
p2557
g1811
sS'134'
p2558
(dp2559
S'1279'
p2560
(dp2561
g725
g2560
sssS'80'
p2562
(dp2563
S'1290'
p2564
(dp2565
g725
g2564
ssS'778'
p2566
(dp2567
g725
g2566
sssS'173'
p2568
(dp2569
S'1285'
p2570
(dp2571
g725
g2570
ssS'1690'
p2572
(dp2573
g725
g2572
sssS'97'
p2574
(dp2575
S'1292'
p2576
(dp2577
g725
g2576
ssssg65
(dp2578
S'171'
p2579
(dp2580
S'1283'
p2581
(dp2582
g725
g2581
sssS'154'
p2583
(dp2584
S'1500'
p2585
(dp2586
g725
g2585
ssS'1276'
p2587
(dp2588
g725
g2587
sssS'141'
p2589
(dp2590
S'1434'
p2591
(dp2592
g725
g2591
sssS'135'
p2593
g2559
sS'211'
p2594
g989
sS'191'
p2595
(dp2596
S'1793'
p2597
(dp2598
g725
g2597
sssS'50'
p2599
(dp2600
S'399'
p2601
(dp2602
g725
g2601
ssS'1280'
p2603
(dp2604
g725
g2603
sssS'193'
p2605
(dp2606
S'1278'
p2607
(dp2608
g725
g2607
sssS'192'
p2609
(dp2610
S'1274'
p2611
(dp2612
g725
g2611
sssS'36'
p2613
(dp2614
S'1281'
p2615
(dp2616
g725
g2615
sssS'84'
p2617
(dp2618
S'808'
p2619
(dp2620
g725
g2619
ssS'1277'
p2621
(dp2622
g725
g2621
sssS'71'
p2623
(dp2624
S'640'
p2625
(dp2626
g725
g2625
sssS'80'
p2627
(dp2628
S'716'
p2629
(dp2630
g725
g2629
ssS'1282'
p2631
(dp2632
g725
g2631
sssS'189'
p2633
(dp2634
S'1778'
p2635
(dp2636
g725
g2635
sssS'97'
p2637
(dp2638
S'926'
p2639
(dp2640
g725
g2639
sssS'136'
p2641
g1817
ssg68
(dp2642
S'118'
p2643
(dp2644
S'1429'
p2645
(dp2646
g725
g2645
ssS'1071'
p2647
(dp2648
g725
g2647
ssssg71
(dp2649
S'115'
p2650
(dp2651
S'1426'
p2652
(dp2653
g725
g2652
sssS'176'
p2654
(dp2655
S'1712'
p2656
(dp2657
g725
g2656
sssS'80'
p2658
(dp2659
S'776'
p2660
(dp2661
g725
g2660
ssS'1427'
p2662
(dp2663
g725
g2662
sssS'130'
p2664
g1301
sS'49'
p2665
(dp2666
S'345'
p2667
(dp2668
g725
g2667
ssssg74
(dp2669
S'200'
p2670
(dp2671
S'1906'
p2672
(dp2673
g725
g2672
ssS'1606'
p2674
(dp2675
g725
g2674
ssssg77
(dp2676
S'200'
p2677
(dp2678
S'1929'
p2679
(dp2680
g725
g2679
ssS'136'
p2681
(dp2682
g725
g2681
sssS'189'
p2683
(dp2684
S'1783'
p2685
(dp2686
g725
g2685
sssS'109'
p2687
(dp2688
S'1027'
p2689
(dp2690
g725
g2689
sssS'206'
p2691
(dp2692
S'139'
p2693
(dp2694
g725
g2693
ssS'1988'
p2695
(dp2696
g725
g2695
sssS'44'
p2697
(dp2698
S'137'
p2699
(dp2700
g725
g2699
sssS'45'
p2701
(dp2702
S'135'
p2703
(dp2704
g725
g2703
sssS'192'
p2705
(dp2706
S'132'
p2707
(dp2708
g725
g2707
ssS'1829'
p2709
(dp2710
g725
g2709
sssS'63'
p2711
(dp2712
S'527'
p2713
(dp2714
g725
g2713
ssS'142'
p2715
(dp2716
g725
g2715
sssS'156'
p2717
(dp2718
S'1545'
p2719
(dp2720
g725
g2719
ssS'140'
p2721
(dp2722
g725
g2721
sssS'136'
p2723
g1829
sS'174'
p2724
(dp2725
S'1695'
p2726
(dp2727
g725
g2726
ssS'141'
p2728
(dp2729
g725
g2728
sssS'173'
p2730
(dp2731
S'133'
p2732
(dp2733
g725
g2732
ssS'1678'
p2734
(dp2735
g725
g2734
sssS'118'
p2736
(dp2737
S'1085'
p2738
(dp2739
g725
g2738
ssS'138'
p2740
(dp2741
g725
g2740
ssssg80
(dp2742
S'10'
p2743
(dp2744
S'52'
p2745
(dp2746
g725
g2745
sssS'154'
p2747
(dp2748
S'1474'
p2749
(dp2750
g725
g2749
sssS'194'
p2751
(dp2752
S'1852'
p2753
(dp2754
g725
g2753
ssS'149'
p2755
(dp2756
g725
g2755
sssS'45'
p2757
(dp2758
S'307'
p2759
(dp2760
g725
g2759
sssS'50'
p2761
(dp2762
S'146'
p2763
(dp2764
g725
g2763
ssS'353'
p2765
(dp2766
g725
g2765
sssS'218'
p2767
g1047
sS'41'
p2768
(dp2769
S'150'
p2770
(dp2771
g725
g2770
ssS'220'
p2772
(dp2773
g725
g2772
sssS'130'
p2774
g1307
sS'136'
p2775
g1835
sS'69'
p2776
(dp2777
S'148'
p2778
(dp2779
g725
g2778
sssS'80'
p2780
(dp2781
S'147'
p2782
(dp2783
g725
g2782
ssS'681'
p2784
(dp2785
g725
g2784
sssS'87'
p2786
(dp2787
S'144'
p2788
(dp2789
g725
g2788
ssS'853'
p2790
(dp2791
g725
g2790
sssS'84'
p2792
(dp2793
S'145'
p2794
(dp2795
g725
g2794
ssS'798'
p2796
(dp2797
g725
g2796
ssssg83
(dp2798
S'99'
p2799
(dp2800
S'153'
p2801
(dp2802
g725
g2801
ssS'943'
p2803
(dp2804
g725
g2803
sssS'51'
p2805
(dp2806
S'152'
p2807
(dp2808
g725
g2807
ssS'477'
p2809
(dp2810
g725
g2809
sssS'136'
p2811
g1841
ssg86
(dp2812
S'203'
p2813
(dp2814
S'157'
p2815
(dp2816
g725
g2815
sssS'154'
p2817
(dp2818
S'1520'
p2819
(dp2820
g725
g2819
ssS'155'
p2821
(dp2822
g725
g2821
sssS'50'
p2823
(dp2824
S'158'
p2825
(dp2826
g725
g2825
ssS'435'
p2827
(dp2828
g725
g2827
sssS'41'
p2829
(dp2830
S'160'
p2831
(dp2832
g725
g2831
sssS'98'
p2833
(dp2834
S'159'
p2835
(dp2836
g725
g2835
sssS'136'
p2837
g1847
sS'80'
p2838
(dp2839
S'748'
p2840
(dp2841
g725
g2840
sssS'96'
p2842
(dp2843
S'915'
p2844
(dp2845
g725
g2844
sssS'84'
p2846
(dp2847
S'833'
p2848
(dp2849
g725
g2848
ssS'156'
p2850
(dp2851
g725
g2850
sssS'65'
p2852
(dp2853
S'535'
p2854
(dp2855
g725
g2854
ssssg89
(dp2856
S'215'
p2857
g789
sS'154'
p2858
(dp2859
S'109'
p2860
(dp2861
g725
g2860
sssS'211'
p2862
g959
sS'213'
p2863
g839
sS'50'
p2864
(dp2865
S'421'
p2866
(dp2867
g725
g2866
ssS'113'
p2868
(dp2869
g725
g2868
sssS'132'
p2870
g1172
sS'109'
p2871
(dp2872
S'1017'
p2873
(dp2874
g725
g2873
ssS'110'
p2875
(dp2876
g725
g2875
sssS'136'
p2877
g1851
sS'128'
p2878
(dp2879
S'1158'
p2880
(dp2881
g725
g2880
sssS'80'
p2882
(dp2883
S'114'
p2884
(dp2885
g725
g2884
ssS'735'
p2886
(dp2887
g725
g2886
sssS'189'
p2888
(dp2889
S'111'
p2890
(dp2891
g725
g2890
ssS'1770'
p2892
(dp2893
g725
g2892
sssS'163'
p2894
(dp2895
S'1579'
p2896
(dp2897
g725
g2896
ssS'112'
p2898
(dp2899
g725
g2898
ssssg92
(dp2900
S'59'
p2901
(dp2902
S'509'
p2903
(dp2904
g725
g2903
sssS'49'
p2905
(dp2906
S'116'
p2907
(dp2908
g725
g2907
sssS'44'
p2909
(dp2910
S'299'
p2911
(dp2912
g725
g2911
sssS'36'
p2913
(dp2914
S'119'
p2915
(dp2916
g725
g2915
sssS'109'
p2917
(dp2918
S'117'
p2919
(dp2920
g725
g2919
sssS'111'
p2921
(dp2922
S'120'
p2923
(dp2924
g725
g2923
sssS'136'
p2925
g1857
sS'189'
p2926
(dp2927
S'118'
p2928
(dp2929
g725
g2928
ssS'1773'
p2930
(dp2931
g725
g2930
ssssg95
(dp2932
S'154'
p2933
(dp2934
S'121'
p2935
(dp2936
g725
g2935
ssS'1527'
p2937
(dp2938
g725
g2937
sssS'114'
p2939
(dp2940
S'1053'
p2941
(dp2942
g725
g2941
sssS'30'
p2943
(dp2944
S'170'
p2945
(dp2946
g725
g2945
sssS'50'
p2947
(dp2948
S'124'
p2949
(dp2950
g725
g2949
ssS'446'
p2951
(dp2952
g725
g2951
sssS'41'
p2953
(dp2954
S'129'
p2955
(dp2956
g725
g2955
ssS'259'
p2957
(dp2958
g725
g2957
sssS'77'
p2959
(dp2960
S'127'
p2961
(dp2962
g725
g2961
sssS'76'
p2963
(dp2964
S'664'
p2965
(dp2966
g725
g2965
sssS'130'
p2967
g1311
sS'70'
p2968
(dp2969
S'622'
p2970
(dp2971
g725
g2970
sssS'164'
p2972
(dp2973
S'128'
p2974
(dp2975
g725
g2974
sssS'80'
p2976
(dp2977
S'125'
p2978
(dp2979
g725
g2978
ssS'755'
p2980
(dp2981
g725
g2980
sssS'106'
p2982
(dp2983
S'122'
p2984
(dp2985
g725
g2984
sssS'104'
p2986
(dp2987
S'123'
p2988
(dp2989
g725
g2988
ssssg98
(dp2990
S'200'
p2991
(dp2992
S'131'
p2993
(dp2994
g725
g2993
ssS'1930'
p2995
(dp2996
g725
g2995
sssS'173'
p2997
(dp2998
S'1680'
p2999
(dp3000
g725
g2999
ssS'130'
p3001
(dp3002
g725
g3001
ssssg101
(dp3003
S'200'
p3004
(dp3005
S'1939'
p3006
(dp3007
g725
g3006
ssS'1564'
p3008
(dp3009
g725
g3008
sssS'80'
p3010
(dp3011
S'1565'
p3012
(dp3013
g725
g3012
ssS'772'
p3014
(dp3015
g725
g3014
sssS'192'
p3016
(dp3017
S'1833'
p3018
(dp3019
g725
g3018
ssS'1562'
p3020
(dp3021
g725
g3020
sssS'173'
p3022
(dp3023
S'1561'
p3024
(dp3025
g725
g3024
ssS'1687'
p3026
(dp3027
g725
g3026
sssS'70'
p3028
(dp3029
S'632'
p3030
(dp3031
g725
g3030
ssS'1563'
p3032
(dp3033
g725
g3032
ssssg104
(dp3034
S'154'
p3035
(dp3036
S'1491'
p3037
(dp3038
g725
g3037
ssS'161'
p3039
(dp3040
g725
g3039
sssS'207'
p3041
(dp3042
S'1995'
p3043
(dp3044
g725
g3043
sssS'50'
p3045
(dp3046
S'380'
p3047
(dp3048
g725
g3047
ssS'163'
p3049
(dp3050
g725
g3049
sssS'41'
p3051
(dp3052
S'244'
p3053
(dp3054
g725
g3053
sssS'120'
p3055
(dp3056
S'162'
p3057
(dp3058
g725
g3057
sssS'84'
p3059
(dp3060
S'834'
p3061
(dp3062
g725
g3061
ssssg107
(dp3063
S'80'
p3064
(dp3065
S'164'
p3066
(dp3067
g725
g3066
ssS'746'
p3068
(dp3069
g725
g3068
ssssg110
(dp3070
S'39'
p3071
(dp3072
S'217'
p3073
(dp3074
g725
g3073
ssS'1567'
p3075
(dp3076
g725
g3075
sssS'136'
p3077
g2314
ssg113
(dp3078
S'154'
p3079
(dp3080
g638
(dp3081
g725
g638
ssS'1531'
p3082
(dp3083
g725
g3082
sssS'109'
p3084
(dp3085
g437
(dp3086
g725
g437
sssS'50'
p3087
(dp3088
g290
(dp3089
g725
g290
ssS'457'
p3090
(dp3091
g725
g3090
sssS'193'
p3092
(dp3093
S'1847'
p3094
(dp3095
g725
g3094
sssS'41'
p3096
(dp3097
S'267'
p3098
(dp3099
g725
g3098
ssg449
(dp3100
g725
g449
sssS'117'
p3101
(dp3102
S'1067'
p3103
(dp3104
g725
g3103
sssS'130'
p3105
g1316
sS'136'
p3106
g1862
sS'127'
p3107
(dp3108
S'1151'
p3109
(dp3110
g725
g3109
sssS'80'
p3111
(dp3112
S'763'
p3113
(dp3114
g725
g3113
ssg116
(dp3115
g725
g116
ssssg116
(dp3116
S'154'
p3117
(dp3118
S'1525'
p3119
(dp3120
g725
g3119
ssS'20'
p3121
(dp3122
g725
g3121
sssS'41'
p3123
(dp3124
S'25'
p3125
(dp3126
g725
g3125
ssS'256'
p3127
(dp3128
g725
g3127
sssS'132'
p3129
g1213
sS'168'
p3130
(dp3131
S'24'
p3132
(dp3133
g725
g3132
sssS'136'
p3134
g1866
sS'70'
p3135
(dp3136
S'620'
p3137
(dp3138
g725
g3137
ssS'21'
p3139
(dp3140
g725
g3139
sssS'80'
p3141
(dp3142
S'753'
p3143
(dp3144
g725
g3143
ssS'23'
p3145
(dp3146
g725
g3145
sssS'223'
p3147
(dp3148
S'2066'
p3149
(dp3150
g725
g3149
ssssg119
(dp3151
S'10'
p3152
(dp3153
S'58'
p3154
(dp3155
g725
g3154
sssS'154'
p3156
(dp3157
S'1510'
p3158
(dp3159
g725
g3158
ssS'34'
p3160
(dp3161
g725
g3160
sssS'50'
p3162
(dp3163
S'36'
p3164
(dp3165
g725
g3164
ssS'413'
p3166
(dp3167
g725
g3166
sssS'53'
p3168
(dp3169
S'35'
p3170
(dp3171
g725
g3170
sssS'136'
p3172
g1871
sS'80'
p3173
(dp3174
S'729'
p3175
(dp3176
g725
g3175
ssssg122
(dp3177
S'20'
p3178
g2895
sS'154'
p3179
(dp3180
S'1495'
p3181
(dp3182
g725
g3181
ssS'1574'
p3183
(dp3184
g725
g3183
sssS'195'
p3185
(dp3186
S'1582'
p3187
(dp3188
g725
g3187
sssS'45'
p3189
(dp3190
S'1584'
p3191
(dp3192
g725
g3191
sssS'50'
p3193
(dp3194
S'1580'
p3195
(dp3196
g725
g3195
ssS'390'
p3197
(dp3198
g725
g3197
sssS'118'
p3199
(dp3200
S'1588'
p3201
(dp3202
g725
g3201
ssS'1073'
p3203
(dp3204
g725
g3203
sssS'132'
p3205
g1245
sS'131'
p3206
g1283
sS'130'
p3207
g1599
sS'136'
p3208
g2326
sS'70'
p3209
(dp3210
S'588'
p3211
(dp3212
g725
g3211
ssS'1585'
p3213
(dp3214
g725
g3213
sssS'127'
p3215
(dp3216
S'1589'
p3217
(dp3218
g725
g3217
sssS'80'
p3219
(dp3220
S'709'
p3221
(dp3222
g725
g3221
ssS'1587'
p3223
(dp3224
g725
g3223
sssS'192'
p3225
(dp3226
S'1573'
p3227
(dp3228
g725
g3227
sssS'106'
p3229
(dp3230
S'997'
p3231
(dp3232
g725
g3231
ssS'1577'
p3233
(dp3234
g725
g3233
sssS'87'
p3235
(dp3236
S'859'
p3237
(dp3238
g725
g3237
ssS'1575'
p3239
(dp3240
g725
g3239
sssS'84'
p3241
(dp3242
S'801'
p3243
(dp3244
g725
g3243
ssS'1576'
p3245
(dp3246
g725
g3245
ssssg125
(dp3247
S'154'
p3248
(dp3249
S'1098'
p3250
(dp3251
g725
g3250
ssS'1497'
p3252
(dp3253
g725
g3252
sssS'210'
p3254
g944
sS'211'
p3255
g993
sS'37'
p3256
(dp3257
S'1105'
p3258
(dp3259
g725
g3258
sssS'50'
p3260
(dp3261
S'388'
p3262
(dp3263
g725
g3262
ssS'1100'
p3264
(dp3265
g725
g3264
sssS'41'
p3266
(dp3267
S'1106'
p3268
(dp3269
g725
g3268
ssS'253'
p3270
(dp3271
g725
g3270
sssS'130'
p3272
g1675
sS'136'
p3273
g2033
sS'70'
p3274
(dp3275
S'1099'
p3276
(dp3277
g725
g3276
ssS'589'
p3278
(dp3279
g725
g3278
sssS'69'
p3280
(dp3281
S'555'
p3282
(dp3283
g725
g3282
sssS'80'
p3284
(dp3285
S'1101'
p3286
(dp3287
g725
g3286
ssS'710'
p3288
(dp3289
g725
g3288
sssS'95'
p3290
(dp3291
S'1104'
p3292
(dp3293
g725
g3292
sssS'125'
p3294
(dp3295
S'1136'
p3296
(dp3297
g725
g3296
ssssg128
(dp3298
S'92'
p3299
(dp3300
S'1115'
p3301
(dp3302
g725
g3301
sssS'14'
p3303
(dp3304
S'83'
p3305
(dp3306
g725
g3305
sssS'190'
p3307
(dp3308
S'1786'
p3309
(dp3310
g725
g3309
sssS'28'
p3311
g3056
sS'50'
p3312
(dp3313
S'1111'
p3314
(dp3315
g725
g3314
ssS'455'
p3316
(dp3317
g725
g3316
sssS'41'
p3318
(dp3319
S'1117'
p3320
(dp3321
g725
g3320
ssS'265'
p3322
(dp3323
g725
g3322
sssS'130'
p3324
g1327
sS'75'
p3325
(dp3326
S'656'
p3327
(dp3328
g725
g3327
sssS'36'
p3329
(dp3330
S'1112'
p3331
(dp3332
g725
g3331
sssS'136'
p3333
g1877
sS'229'
p3334
(dp3335
S'1110'
p3336
(dp3337
g725
g3336
sssg644
(dp3338
S'1116'
p3339
(dp3340
g725
g3339
sssg437
(dp3341
S'1113'
p3342
(dp3343
g725
g3342
sssS'80'
p3344
(dp3345
S'762'
p3346
(dp3347
g725
g3346
ssS'1119'
p3348
(dp3349
g725
g3348
sssS'96'
p3350
(dp3351
S'1109'
p3352
(dp3353
g725
g3352
sssS'172'
p3354
(dp3355
S'1658'
p3356
(dp3357
g725
g3356
sssS'84'
p3358
(dp3359
S'1108'
p3360
(dp3361
g725
g3360
sssS'154'
p3362
(dp3363
S'1107'
p3364
(dp3365
g725
g3364
ssS'1532'
p3366
(dp3367
g725
g3366
ssssg131
(dp3368
S'70'
p3369
(dp3370
S'1120'
p3371
(dp3372
g725
g3371
ssS'570'
p3373
(dp3374
g725
g3373
ssssg134
(dp3375
S'145'
p3376
(dp3377
S'1122'
p3378
(dp3379
g725
g3378
sssS'41'
p3380
(dp3381
S'1124'
p3382
(dp3383
g725
g3382
sssS'182'
p3384
(dp3385
S'1121'
p3386
(dp3387
g725
g3386
sssS'130'
p3388
g1333
sS'179'
p3389
(dp3390
S'1722'
p3391
(dp3392
g725
g3391
sssS'80'
p3393
(dp3394
S'718'
p3395
(dp3396
g725
g3395
ssssg137
(dp3397
S'154'
p3398
(dp3399
S'1501'
p3400
(dp3401
g725
g3400
ssS'1125'
p3402
(dp3403
g725
g3402
sssS'45'
p3404
(dp3405
S'320'
p3406
(dp3407
g725
g3406
sssS'50'
p3408
(dp3409
S'1128'
p3410
(dp3411
g725
g3410
ssS'401'
p3412
(dp3413
g725
g3412
sssS'36'
p3414
(dp3415
S'199'
p3416
(dp3417
g725
g3416
sssS'80'
p3418
(dp3419
S'1129'
p3420
(dp3421
g725
g3420
ssS'719'
p3422
(dp3423
g725
g3422
sssS'41'
p3424
(dp3425
S'273'
p3426
(dp3427
g725
g3426
ssS'1130'
p3428
(dp3429
g725
g3428
sssS'87'
p3430
(dp3431
S'1126'
p3432
(dp3433
g725
g3432
sssS'84'
p3434
(dp3435
S'815'
p3436
(dp3437
g725
g3436
ssS'1127'
p3438
(dp3439
g725
g3438
ssssg140
(dp3440
S'64'
p3441
(dp3442
S'1132'
p3443
(dp3444
g725
g3443
ssS'529'
p3445
(dp3446
g725
g3445
sssS'136'
p3447
g1883
ssg143
(dp3448
S'59'
p3449
(dp3450
S'510'
p3451
(dp3452
g725
g3451
ssS'1134'
p3453
(dp3454
g725
g3453
sssS'50'
p3455
(dp3456
S'1137'
p3457
(dp3458
g725
g3457
ssS'361'
p3459
(dp3460
g725
g3459
sssS'35'
p3461
(dp3462
S'1135'
p3463
(dp3464
g725
g3463
sssS'77'
p3465
(dp3466
S'671'
p3467
(dp3468
g725
g3467
sssS'111'
p3469
(dp3470
S'1040'
p3471
(dp3472
g725
g3471
sssS'136'
p3473
g1889
sS'69'
p3474
(dp3475
S'559'
p3476
(dp3477
g725
g3476
sssS'80'
p3478
(dp3479
S'688'
p3480
(dp3481
g725
g3480
sssS'119'
p3482
g3295
ssg146
(dp3483
S'70'
p3484
(dp3485
S'606'
p3486
(dp3487
g725
g3486
ssS'1138'
p3488
(dp3489
g725
g3488
ssssg149
(dp3490
S'200'
p3491
(dp3492
S'1945'
p3493
(dp3494
g725
g3493
ssS'1152'
p3495
(dp3496
g725
g3495
sssS'189'
p3497
(dp3498
S'1144'
p3499
(dp3500
g725
g3499
sssS'154'
p3501
(dp3502
S'1140'
p3503
(dp3504
g725
g3503
ssS'1541'
p3505
(dp3506
g725
g3505
sssS'109'
p3507
(dp3508
S'1150'
p3509
(dp3510
g725
g3509
sssS'173'
p3511
(dp3512
S'1147'
p3513
(dp3514
g725
g3513
ssS'1693'
p3515
(dp3516
g725
g3515
sssS'50'
p3517
(dp3518
S'474'
p3519
(dp3520
g725
g3519
ssS'1145'
p3521
(dp3522
g725
g3521
sssS'118'
p3523
(dp3524
S'1154'
p3525
(dp3526
g725
g3525
ssS'1096'
p3527
(dp3528
g725
g3527
sssS'115'
p3529
(dp3530
S'1064'
p3531
(dp3532
g725
g3531
sssg113
g3108
sS'130'
p3533
g1339
sS'136'
p3534
g1895
sS'70'
p3535
(dp3536
S'638'
p3537
(dp3538
g725
g3537
ssS'1149'
p3539
(dp3540
g725
g3539
sssS'102'
p3541
(dp3542
S'961'
p3543
(dp3544
g725
g3543
sssS'80'
p3545
(dp3546
S'1153'
p3547
(dp3548
g725
g3547
sssS'192'
p3549
(dp3550
S'1842'
p3551
(dp3552
g725
g3551
ssS'1139'
p3553
(dp3554
g725
g3553
sssS'106'
p3555
(dp3556
S'1143'
p3557
(dp3558
g725
g3557
sssS'87'
p3559
(dp3560
S'881'
p3561
(dp3562
g725
g3561
ssS'1141'
p3563
(dp3564
g725
g3563
sssS'84'
p3565
(dp3566
S'1142'
p3567
(dp3568
g725
g3567
ssS'839'
p3569
(dp3570
g725
g3569
sssS'163'
p3571
g3216
ssg152
(dp3572
S'164'
p3573
(dp3574
S'1591'
p3575
(dp3576
g725
g3575
sssS'20'
p3577
g2879
sS'154'
p3578
(dp3579
S'1536'
p3580
(dp3581
g725
g3580
ssS'1156'
p3582
(dp3583
g725
g3582
sssS'207'
p3584
(dp3585
S'1167'
p3586
(dp3587
g725
g3586
sssS'49'
p3588
(dp3589
S'1155'
p3590
(dp3591
g725
g3590
sssS'31'
p3592
(dp3593
S'1164'
p3594
(dp3595
g725
g3594
sssS'50'
p3596
(dp3597
S'1157'
p3598
(dp3599
g725
g3598
ssS'466'
p3600
(dp3601
g725
g3600
sssS'41'
p3602
(dp3603
S'1162'
p3604
(dp3605
g725
g3604
ssS'277'
p3606
(dp3607
g725
g3606
sssS'182'
p3608
(dp3609
S'1733'
p3610
(dp3611
g725
g3610
sssS'82'
p3612
(dp3613
S'1166'
p3614
(dp3615
g725
g3614
sssS'75'
p3616
(dp3617
S'655'
p3618
(dp3619
g725
g3618
sssS'130'
p3620
g1345
sS'168'
p3621
(dp3622
S'1160'
p3623
(dp3624
g725
g3623
sssS'136'
p3625
g1901
sS'70'
p3626
(dp3627
S'631'
p3628
(dp3629
g725
g3628
ssS'1165'
p3630
(dp3631
g725
g3630
sssg644
(dp3632
S'41'
p3633
(dp3634
g725
g3633
sssS'80'
p3635
(dp3636
S'770'
p3637
(dp3638
g725
g3637
sssS'84'
p3639
(dp3640
S'821'
p3641
(dp3642
g725
g3641
sssS'14'
p3643
(dp3644
S'1161'
p3645
(dp3646
g725
g3645
ssssg155
(dp3647
S'80'
p3648
(dp3649
S'740'
p3650
(dp3651
g725
g3650
ssS'1168'
p3652
(dp3653
g725
g3652
ssssg158
(dp3654
S'173'
p3655
(dp3656
S'1692'
p3657
(dp3658
g725
g3657
ssS'1607'
p3659
(dp3660
g725
g3659
ssssg161
(dp3661
S'154'
p3662
(dp3663
S'1069'
p3664
(dp3665
g725
g3664
ssS'1485'
p3666
(dp3667
g725
g3666
sssS'195'
p3668
(dp3669
S'1075'
p3670
(dp3671
g725
g3670
ssS'1873'
p3672
(dp3673
g725
g3672
sssS'194'
p3674
(dp3675
S'1076'
p3676
(dp3677
g725
g3676
ssS'1863'
p3678
(dp3679
g725
g3678
sssS'196'
p3680
(dp3681
S'1082'
p3682
(dp3683
g725
g3682
ssS'1880'
p3684
(dp3685
g725
g3684
sssS'192'
p3686
(dp3687
S'1086'
p3688
(dp3689
g725
g3688
ssS'1809'
p3690
(dp3691
g725
g3690
sssS'115'
p3692
(dp3693
S'1063'
p3694
(dp3695
g725
g3694
ssS'1090'
p3696
(dp3697
g725
g3696
sssS'132'
p3698
g1235
sS'130'
p3699
g1351
sS'136'
p3700
g1907
sS'66'
p3701
(dp3702
S'543'
p3703
(dp3704
g725
g3703
ssS'1088'
p3705
(dp3706
g725
g3705
sssS'177'
p3707
(dp3708
S'1074'
p3709
(dp3710
g725
g3709
ssS'1717'
p3711
(dp3712
g725
g3711
sssS'139'
p3713
g2644
sS'173'
p3714
(dp3715
S'1095'
p3716
(dp3717
g725
g3716
ssS'1679'
p3718
(dp3719
g725
g3718
sssS'80'
p3720
(dp3721
S'1084'
p3722
(dp3723
g725
g3722
ssS'696'
p3724
(dp3725
g725
g3724
sssS'84'
p3726
(dp3727
S'1070'
p3728
(dp3729
g725
g3728
sssS'24'
p3730
g2737
sS'87'
p3731
(dp3732
S'1087'
p3733
(dp3734
g725
g3733
ssS'871'
p3735
(dp3736
g725
g3735
sssS'183'
p3737
(dp3738
S'1743'
p3739
(dp3740
g725
g3739
ssS'1093'
p3741
(dp3742
g725
g3741
sssS'127'
p3743
g3524
sg296
(dp3744
S'32'
p3745
(dp3746
g725
g3745
ssS'1077'
p3747
(dp3748
g725
g3747
sssS'188'
p3749
(dp3750
S'1762'
p3751
(dp3752
g725
g3751
ssS'1089'
p3753
(dp3754
g725
g3753
sssS'189'
p3755
(dp3756
S'1782'
p3757
(dp3758
g725
g3757
ssS'1091'
p3759
(dp3760
g725
g3759
sssS'200'
p3761
(dp3762
S'1905'
p3763
(dp3764
g725
g3763
ssS'1081'
p3765
(dp3766
g725
g3765
sssS'148'
p3767
(dp3768
S'1449'
p3769
(dp3770
g725
g3769
ssS'1092'
p3771
(dp3772
g725
g3771
sssS'109'
p3773
(dp3774
S'1026'
p3775
(dp3776
g725
g3775
ssS'1080'
p3777
(dp3778
g725
g3777
sssS'70'
p3779
(dp3780
S'576'
p3781
(dp3782
g725
g3781
ssS'1079'
p3783
(dp3784
g725
g3783
sssS'102'
p3785
(dp3786
S'960'
p3787
(dp3788
g725
g3787
sssS'163'
p3789
g3200
sS'50'
p3790
(dp3791
S'1072'
p3792
(dp3793
g725
g3792
ssS'368'
p3794
(dp3795
g725
g3794
sssS'53'
p3796
(dp3797
S'487'
p3798
(dp3799
g725
g3798
ssssg164
(dp3800
S'146'
p3801
(dp3802
S'507'
p3803
(dp3804
g725
g3803
sssS'154'
p3805
(dp3806
S'1519'
p3807
(dp3808
g725
g3807
ssS'502'
p3809
(dp3810
g725
g3809
sssS'19'
p3811
(dp3812
S'503'
p3813
(dp3814
g725
g3813
sssS'50'
p3815
(dp3816
S'506'
p3817
(dp3818
g725
g3817
ssS'434'
p3819
(dp3820
g725
g3819
sssS'218'
p3821
g1051
sS'192'
p3822
(dp3823
S'1818'
p3824
(dp3825
g725
g3824
sssS'180'
p3826
(dp3827
S'505'
p3828
(dp3829
g725
g3828
sssS'130'
p3830
g1357
sS'97'
p3831
(dp3832
S'924'
p3833
(dp3834
g725
g3833
sssS'136'
p3835
g1913
sS'88'
p3836
(dp3837
S'511'
p3838
(dp3839
g725
g3838
ssS'882'
p3840
(dp3841
g725
g3840
sssS'70'
p3842
(dp3843
S'504'
p3844
(dp3845
g725
g3844
ssS'615'
p3846
(dp3847
g725
g3846
sssS'82'
p3848
(dp3849
S'787'
p3850
(dp3851
g725
g3850
sssS'125'
p3852
g3450
sS'21'
p3853
g2902
ssg167
(dp3854
S'50'
p3855
(dp3856
S'383'
p3857
(dp3858
g725
g3857
ssS'500'
p3859
(dp3860
g725
g3859
ssssg170
(dp3861
S'37'
p3862
(dp3863
S'493'
p3864
(dp3865
g725
g3864
sssS'130'
p3866
g1363
sS'69'
p3867
(dp3868
S'494'
p3869
(dp3870
g725
g3869
sssS'80'
p3871
(dp3872
S'732'
p3873
(dp3874
g725
g3873
ssS'491'
p3875
(dp3876
g725
g3875
sssS'172'
p3877
(dp3878
S'1648'
p3879
(dp3880
g725
g3879
sssS'105'
p3881
(dp3882
S'490'
p3883
(dp3884
g725
g3883
ssssg173
(dp3885
S'115'
p3886
(dp3887
S'1065'
p3888
(dp3889
g725
g3888
sssS'136'
p3890
g1919
ssg176
(dp3891
S'50'
p3892
(dp3893
S'498'
p3894
(dp3895
g725
g3894
ssS'395'
p3896
(dp3897
g725
g3896
sssS'204'
p3898
(dp3899
S'1966'
p3900
(dp3901
g725
g3900
ssS'499'
p3902
(dp3903
g725
g3902
ssssg179
(dp3904
S'80'
p3905
(dp3906
S'497'
p3907
(dp3908
g725
g3907
ssS'712'
p3909
(dp3910
g725
g3909
sssS'70'
p3911
(dp3912
S'496'
p3913
(dp3914
g725
g3913
ssS'592'
p3915
(dp3916
g725
g3915
sssS'192'
p3917
(dp3918
S'495'
p3919
(dp3920
g725
g3919
ssssg182
(dp3921
S'26'
p3922
g2806
sS'136'
p3923
g1925
sS'72'
p3924
(dp3925
S'478'
p3926
(dp3927
g725
g3926
ssS'643'
p3928
(dp3929
g725
g3928
ssssg185
(dp3930
S'217'
p3931
g746
sS'214'
p3932
g770
sS'215'
p3933
g793
sS'213'
p3934
g853
sS'210'
p3935
g920
sS'211'
p3936
g977
sS'219'
p3937
g1094
sS'164'
p3938
(dp3939
S'423'
p3940
(dp3941
g725
g3940
ssS'1593'
p3942
(dp3943
g725
g3942
sssS'131'
p3944
g1260
sS'130'
p3945
g1369
sS'136'
p3946
g1931
sS'134'
p3947
g2600
sS'25'
p3948
g2762
sS'27'
p3949
g2824
sS'20'
p3950
g2865
sS'22'
p3951
g2948
sS'223'
p3952
(dp3953
S'440'
p3954
(dp3955
g725
g3954
ssS'2065'
p3956
(dp3957
g725
g3956
sssS'28'
p3958
g3046
sg113
g3088
sS'97'
p3959
(dp3960
S'929'
p3961
(dp3962
g725
g3961
ssS'445'
p3963
(dp3964
g725
g3963
sssg119
g3163
sS'96'
p3965
(dp3966
S'465'
p3967
(dp3968
g725
g3967
ssS'918'
p3969
(dp3970
g725
g3969
sssS'87'
p3971
(dp3972
S'858'
p3973
(dp3974
g725
g3973
ssS'427'
p3975
(dp3976
g725
g3975
sssS'120'
p3977
g3313
sS'123'
p3978
g3409
sS'125'
p3979
g3456
sS'127'
p3980
g3518
sS'128'
p3981
g3597
sS'69'
p3982
(dp3983
S'556'
p3984
(dp3985
g725
g3984
ssS'377'
p3986
(dp3987
g725
g3986
sssS'59'
p3988
g3816
sS'58'
p3989
g3856
sS'132'
p3990
g1198
sS'57'
p3991
g3893
sS'53'
p3992
(dp3993
S'472'
p3994
(dp3995
g725
g3994
ssS'484'
p3996
(dp3997
g725
g3996
sssS'199'
p3998
(dp3999
S'1894'
p4000
(dp4001
g725
g4000
ssS'417'
p4002
(dp4003
g725
g4002
sssS'198'
p4004
(dp4005
S'450'
p4006
(dp4007
g725
g4006
ssS'1887'
p4008
(dp4009
g725
g4008
sssS'195'
p4010
(dp4011
S'447'
p4012
(dp4013
g725
g4012
ssS'1866'
p4014
(dp4015
g725
g4014
sssS'194'
p4016
(dp4017
S'363'
p4018
(dp4019
g725
g4018
ssS'1856'
p4020
(dp4021
g725
g4020
sssS'197'
p4022
(dp4023
S'398'
p4024
(dp4025
g725
g4024
ssS'1882'
p4026
(dp4027
g725
g4026
sssS'191'
p4028
(dp4029
S'1796'
p4030
(dp4031
g725
g4030
sssS'193'
p4032
(dp4033
S'429'
p4034
(dp4035
g725
g4034
ssS'1848'
p4036
(dp4037
g725
g4036
sssS'192'
p4038
(dp4039
S'370'
p4040
(dp4041
g725
g4040
ssS'1802'
p4042
(dp4043
g725
g4042
sssS'115'
p4044
(dp4045
S'468'
p4046
(dp4047
g725
g4046
ssS'1056'
p4048
(dp4049
g725
g4048
sssS'114'
p4050
(dp4051
S'379'
p4052
(dp4053
g725
g4052
ssS'1052'
p4054
(dp4055
g725
g4054
sssS'88'
p4056
(dp4057
S'432'
p4058
(dp4059
g725
g4058
ssS'885'
p4060
(dp4061
g725
g4060
sssS'111'
p4062
(dp4063
S'382'
p4064
(dp4065
g725
g4064
ssS'1035'
p4066
(dp4067
g725
g4066
sssS'112'
p4068
(dp4069
S'1047'
p4070
(dp4071
g725
g4070
ssS'409'
p4072
(dp4073
g725
g4072
sssS'181'
p4074
(dp4075
S'1731'
p4076
(dp4077
g725
g4076
sssS'80'
p4078
(dp4079
S'461'
p4080
(dp4081
g725
g4080
ssS'736'
p4082
(dp4083
g725
g4082
sssS'119'
p4084
g3261
sS'118'
p4085
g3791
sS'84'
p4086
(dp4087
S'802'
p4088
(dp4089
g725
g4088
ssS'386'
p4090
(dp4091
g725
g4090
sssS'226'
p4092
(dp4093
S'2080'
p4094
(dp4095
g725
g4094
ssS'385'
p4096
(dp4097
g725
g4096
sssg290
(dp4098
S'18'
p4099
(dp4100
g725
g4099
ssS'400'
p4101
(dp4102
g725
g4101
sssS'109'
p4103
(dp4104
S'1016'
p4105
(dp4106
g725
g4105
ssS'454'
p4107
(dp4108
g725
g4107
sssS'102'
p4109
(dp4110
S'404'
p4111
(dp4112
g725
g4111
ssS'952'
p4113
(dp4114
g725
g4113
sssS'106'
p4115
(dp4116
S'356'
p4117
(dp4118
g725
g4117
ssS'996'
p4119
(dp4120
g725
g4119
sssS'104'
p4121
(dp4122
S'973'
p4123
(dp4124
g725
g4123
ssS'456'
p4125
(dp4126
g725
g4125
sssS'105'
p4127
(dp4128
S'437'
p4129
(dp4130
g725
g4129
ssS'980'
p4131
(dp4132
g725
g4131
sssS'38'
p4133
(dp4134
S'452'
p4135
(dp4136
g725
g4135
ssS'215'
p4137
(dp4138
g725
g4137
sssS'33'
p4139
(dp4140
S'177'
p4141
(dp4142
g725
g4141
ssS'442'
p4143
(dp4144
g725
g4143
sssS'32'
p4145
(dp4146
S'175'
p4147
(dp4148
g725
g4147
ssS'376'
p4149
(dp4150
g725
g4149
sssS'31'
p4151
(dp4152
S'425'
p4153
(dp4154
g725
g4153
ssS'173'
p4155
(dp4156
g725
g4155
sssS'30'
p4157
(dp4158
S'458'
p4159
(dp4160
g725
g4159
ssS'168'
p4161
(dp4162
g725
g4161
sssS'37'
p4163
(dp4164
S'202'
p4165
(dp4166
g725
g4165
ssS'403'
p4167
(dp4168
g725
g4167
sssS'36'
p4169
(dp4170
S'198'
p4171
(dp4172
g725
g4171
ssS'430'
p4173
(dp4174
g725
g4173
sssS'35'
p4175
(dp4176
S'436'
p4177
(dp4178
g725
g4177
ssS'188'
p4179
(dp4180
g725
g4179
sssS'34'
p4181
(dp4182
S'182'
p4183
(dp4184
g725
g4183
ssS'358'
p4185
(dp4186
g725
g4185
sssS'61'
p4187
(dp4188
S'464'
p4189
(dp4190
g725
g4189
ssS'518'
p4191
(dp4192
g725
g4191
sssS'65'
p4193
(dp4194
S'537'
p4195
(dp4196
g725
g4195
ssS'405'
p4197
(dp4198
g725
g4197
sssS'68'
p4199
(dp4200
S'469'
p4201
(dp4202
g725
g4201
ssS'550'
p4203
(dp4204
g725
g4203
sssS'176'
p4205
(dp4206
S'411'
p4207
(dp4208
g725
g4207
ssS'1706'
p4209
(dp4210
g725
g4209
sssS'175'
p4211
(dp4212
S'393'
p4213
(dp4214
g725
g4213
ssS'1698'
p4215
(dp4216
g725
g4215
sssS'172'
p4217
(dp4218
S'1651'
p4219
(dp4220
g725
g4219
ssS'426'
p4221
(dp4222
g725
g4221
sssS'171'
p4223
(dp4224
S'374'
p4225
(dp4226
g725
g4225
ssS'1637'
p4227
(dp4228
g725
g4227
sssS'182'
p4229
(dp4230
S'1735'
p4231
(dp4232
g725
g4231
ssS'418'
p4233
(dp4234
g725
g4233
sssg437
(dp4235
S'13'
p4236
(dp4237
g725
g4236
ssS'470'
p4238
(dp4239
g725
g4238
sssS'186'
p4240
(dp4241
S'420'
p4242
(dp4243
g725
g4242
ssS'1756'
p4244
(dp4245
g725
g4244
sssg449
(dp4246
S'428'
p4247
(dp4248
g725
g4247
ssS'29'
p4249
(dp4250
g725
g4249
sssS'189'
p4251
(dp4252
S'407'
p4253
(dp4254
g725
g4253
ssS'1769'
p4255
(dp4256
g725
g4255
sssS'185'
p4257
(dp4258
S'460'
p4259
(dp4260
g725
g4259
ssS'1750'
p4261
(dp4262
g725
g4261
sssS'98'
p4263
(dp4264
S'414'
p4265
(dp4266
g725
g4265
ssS'937'
p4267
(dp4268
g725
g4267
sssS'168'
p4269
(dp4270
S'1614'
p4271
(dp4272
g725
g4271
ssS'375'
p4273
(dp4274
g725
g4273
sssS'169'
p4275
(dp4276
S'1627'
p4277
(dp4278
g725
g4277
ssS'387'
p4279
(dp4280
g725
g4279
sssS'229'
p4281
(dp4282
S'441'
p4283
(dp4284
g725
g4283
ssS'2089'
p4285
(dp4286
g725
g4285
sssS'228'
p4287
(dp4288
S'2083'
p4289
(dp4290
g725
g4289
ssS'453'
p4291
(dp4292
g725
g4291
sssS'227'
p4293
(dp4294
S'2081'
p4295
(dp4296
g725
g4295
ssS'359'
p4297
(dp4298
g725
g4297
sssS'165'
p4299
g1008
sS'93'
p4300
(dp4301
S'392'
p4302
(dp4303
g725
g4302
ssS'903'
p4304
(dp4305
g725
g4304
sssS'95'
p4306
(dp4307
S'909'
p4308
(dp4309
g725
g4308
ssS'360'
p4310
(dp4311
g725
g4310
sssS'221'
p4312
(dp4313
S'2059'
p4314
(dp4315
g725
g4314
ssS'439'
p4316
(dp4317
g725
g4316
sssS'163'
p4318
g3194
sS'11'
p4319
(dp4320
S'354'
p4321
(dp4322
g725
g4321
ssS'66'
p4323
(dp4324
g725
g4323
sssS'10'
p4325
(dp4326
S'56'
p4327
(dp4328
g725
g4327
ssS'444'
p4329
(dp4330
g725
g4329
sssS'220'
p4331
(dp4332
S'467'
p4333
(dp4334
g725
g4333
ssS'2057'
p4335
(dp4336
g725
g4335
sssS'12'
p4337
(dp4338
S'76'
p4339
(dp4340
g725
g4339
ssS'451'
p4341
(dp4342
g725
g4341
sssS'19'
p4343
(dp4344
S'103'
p4345
(dp4346
g725
g4345
ssS'372'
p4347
(dp4348
g725
g4347
sssS'151'
p4349
(dp4350
S'357'
p4351
(dp4352
g725
g4351
ssS'1455'
p4353
(dp4354
g725
g4353
sssS'150'
p4355
(dp4356
S'378'
p4357
(dp4358
g725
g4357
ssS'1453'
p4359
(dp4360
g725
g4359
sssS'152'
p4361
(dp4362
S'391'
p4363
(dp4364
g725
g4363
ssS'1462'
p4365
(dp4366
g725
g4365
sssS'154'
p4367
(dp4368
S'419'
p4369
(dp4370
g725
g4369
ssS'1513'
p4371
(dp4372
g725
g4371
sssS'157'
p4373
(dp4374
S'1550'
p4375
(dp4376
g725
g4375
ssS'364'
p4377
(dp4378
g725
g4377
sssS'159'
p4379
(dp4380
S'396'
p4381
(dp4382
g725
g4381
ssS'1557'
p4383
(dp4384
g725
g4383
sssS'234'
p4385
(dp4386
S'406'
p4387
(dp4388
g725
g4387
ssS'2099'
p4389
(dp4390
g725
g4389
sssS'48'
p4391
(dp4392
S'389'
p4393
(dp4394
g725
g4393
ssS'330'
p4395
(dp4396
g725
g4395
sssS'49'
p4397
(dp4398
S'384'
p4399
(dp4400
g725
g4399
ssS'349'
p4401
(dp4402
g725
g4401
sssS'86'
p4403
(dp4404
S'473'
p4405
(dp4406
g725
g4405
ssS'846'
p4407
(dp4408
g725
g4407
sssS'44'
p4409
(dp4410
S'443'
p4411
(dp4412
g725
g4411
ssS'297'
p4413
(dp4414
g725
g4413
sssS'45'
p4415
(dp4416
S'310'
p4417
(dp4418
g725
g4417
ssS'412'
p4419
(dp4420
g725
g4419
sssS'41'
p4421
(dp4422
S'225'
p4423
(dp4424
g725
g4423
ssS'424'
p4425
(dp4426
g725
g4425
sssg638
(dp4427
g119
(dp4428
g725
g119
ssS'355'
p4429
(dp4430
g725
g4429
sssg644
(dp4431
S'42'
p4432
(dp4433
g725
g4432
ssS'433'
p4434
(dp4435
g725
g4434
sssS'200'
p4436
(dp4437
S'366'
p4438
(dp4439
g725
g4438
ssS'1898'
p4440
(dp4441
g725
g4440
sssS'203'
p4442
(dp4443
S'1955'
p4444
(dp4445
g725
g4444
ssS'471'
p4446
(dp4447
g725
g4446
sssS'205'
p4448
(dp4449
S'371'
p4450
(dp4451
g725
g4450
ssS'1975'
p4452
(dp4453
g725
g4452
sssS'204'
p4454
(dp4455
S'1968'
p4456
(dp4457
g725
g4456
ssS'462'
p4458
(dp4459
g725
g4458
sssS'207'
p4460
(dp4461
S'1996'
p4462
(dp4463
g725
g4462
ssS'369'
p4464
(dp4465
g725
g4464
sssS'208'
p4466
(dp4467
S'1998'
p4468
(dp4469
g725
g4468
ssS'416'
p4470
(dp4471
g725
g4470
sssS'149'
p4472
(dp4473
S'367'
p4474
(dp4475
g725
g4474
ssS'1450'
p4476
(dp4477
g725
g4476
sssS'77'
p4478
(dp4479
S'415'
p4480
(dp4481
g725
g4480
ssS'668'
p4482
(dp4483
g725
g4482
sssS'75'
p4484
(dp4485
S'422'
p4486
(dp4487
g725
g4486
ssS'658'
p4488
(dp4489
g725
g4488
sssS'74'
p4490
(dp4491
S'650'
p4492
(dp4493
g725
g4492
ssS'394'
p4494
(dp4495
g725
g4494
sssS'73'
p4496
(dp4497
S'381'
p4498
(dp4499
g725
g4498
ssS'647'
p4500
(dp4501
g725
g4500
sssS'70'
p4502
(dp4503
S'607'
p4504
(dp4505
g725
g4504
ssS'365'
p4506
(dp4507
g725
g4506
sssS'79'
p4508
(dp4509
S'448'
p4510
(dp4511
g725
g4510
ssS'679'
p4512
(dp4513
g725
g4512
ssssg188
(dp4514
S'152'
p4515
(dp4516
S'486'
p4517
(dp4518
g725
g4517
sssS'157'
p4519
(dp4520
S'1548'
p4521
(dp4522
g725
g4521
sssS'48'
p4523
(dp4524
S'335'
p4525
(dp4526
g725
g4525
ssS'485'
p4527
(dp4528
g725
g4527
sssS'37'
p4529
(dp4530
S'488'
p4531
(dp4532
g725
g4531
sssS'50'
p4533
g3993
sS'193'
p4534
(dp4535
S'1846'
p4536
(dp4537
g725
g4536
sssS'118'
p4538
g3797
sS'136'
p4539
g1937
sg119
g3169
sS'164'
p4540
(dp4541
S'1592'
p4542
(dp4543
g725
g4542
sssS'226'
p4544
(dp4545
S'481'
p4546
(dp4547
g725
g4546
sssS'189'
p4548
(dp4549
S'483'
p4550
(dp4551
g725
g4550
sssS'172'
p4552
(dp4553
S'482'
p4554
(dp4555
g725
g4554
ssssg191
(dp4556
S'80'
p4557
(dp4558
S'479'
p4559
(dp4560
g725
g4559
ssS'694'
p4561
(dp4562
g725
g4561
ssssg194
(dp4563
S'215'
p4564
g781
sS'22'
p4565
g2973
sS'50'
p4566
g3939
sS'53'
p4567
g4541
sS'41'
p4568
(dp4569
S'227'
p4570
(dp4571
g725
g4570
ssS'1597'
p4572
(dp4573
g725
g4572
sssS'234'
p4574
(dp4575
S'2100'
p4576
(dp4577
g725
g4576
sssS'136'
p4578
g2284
sS'185'
p4579
(dp4580
S'1595'
p4581
(dp4582
g725
g4581
sssS'128'
p4583
g3574
sS'80'
p4584
(dp4585
S'738'
p4586
(dp4587
g725
g4586
ssS'1596'
p4588
(dp4589
g725
g4588
ssssg197
(dp4590
S'130'
p4591
g1709
sS'113'
p4592
(dp4593
S'1049'
p4594
(dp4595
g725
g4594
ssS'1946'
p4596
(dp4597
g725
g4596
ssssg200
(dp4598
S'50'
p4599
g3999
sS'221'
p4600
(dp4601
S'1893'
p4602
(dp4603
g725
g4602
sssS'136'
p4604
g1943
ssg203
(dp4605
S'217'
p4606
g765
sS'13'
p4607
(dp4608
S'79'
p4609
(dp4610
g725
g4609
sssS'35'
p4611
(dp4612
S'1721'
p4613
(dp4614
g725
g4613
sssS'122'
p4615
g3390
sS'130'
p4616
g1509
sS'84'
p4617
(dp4618
S'837'
p4619
(dp4620
g725
g4619
ssssg206
(dp4621
S'216'
p4622
g722
sS'135'
p4623
g2530
sS'156'
p4624
(dp4625
S'1544'
p4626
(dp4627
g725
g4626
ssS'1931'
p4628
(dp4629
g725
g4628
sssS'195'
p4630
(dp4631
S'1923'
p4632
(dp4633
g725
g4632
ssS'1871'
p4634
(dp4635
g725
g4634
sssS'194'
p4636
(dp4637
S'1862'
p4638
(dp4639
g725
g4638
ssS'1899'
p4640
(dp4641
g725
g4640
sssS'127'
p4642
g3492
sS'176'
p4643
(dp4644
S'1714'
p4645
(dp4646
g725
g4645
sssS'193'
p4647
(dp4648
S'1911'
p4649
(dp4650
g725
g4649
sssS'192'
p4651
(dp4652
S'1908'
p4653
(dp4654
g725
g4653
ssS'1808'
p4655
(dp4656
g725
g4655
sssS'115'
p4657
(dp4658
S'1062'
p4659
(dp4660
g725
g4659
sssS'116'
p4661
(dp4662
S'1917'
p4663
(dp4664
g725
g4663
ssS'1066'
p4665
(dp4666
g725
g4665
sssS'137'
p4667
g1774
sS'65'
p4668
(dp4669
S'536'
p4670
(dp4671
g725
g4670
ssS'1934'
p4672
(dp4673
g725
g4672
sssS'66'
p4674
(dp4675
S'542'
p4676
(dp4677
g725
g4676
ssS'1910'
p4678
(dp4679
g725
g4678
sssS'103'
p4680
(dp4681
S'1896'
p4682
(dp4683
g725
g4682
ssS'968'
p4684
(dp4685
g725
g4684
sssS'68'
p4686
(dp4687
S'549'
p4688
(dp4689
g725
g4688
ssS'1937'
p4690
(dp4691
g725
g4690
sssS'83'
p4692
(dp4693
S'796'
p4694
(dp4695
g725
g4694
ssS'1940'
p4696
(dp4697
g725
g4696
sssS'80'
p4698
(dp4699
S'1926'
p4700
(dp4701
g725
g4700
sssS'174'
p4702
(dp4703
S'1918'
p4704
(dp4705
g725
g4704
ssS'1694'
p4706
(dp4707
g725
g4706
sssS'173'
p4708
(dp4709
S'1675'
p4710
(dp4711
g725
g4710
ssS'1941'
p4712
(dp4713
g725
g4712
sssS'118'
p4714
g3762
sS'84'
p4715
(dp4716
S'1919'
p4717
(dp4718
g725
g4717
ssS'812'
p4719
(dp4720
g725
g4719
sssS'154'
p4721
(dp4722
S'1895'
p4723
(dp4724
g725
g4723
ssS'1484'
p4725
(dp4726
g725
g4725
sssS'24'
p4727
g2678
sS'48'
p4728
(dp4729
S'1921'
p4730
(dp4731
g725
g4730
ssS'338'
p4732
(dp4733
g725
g4732
sssS'23'
p4734
g2992
sS'69'
p4735
(dp4736
S'1916'
p4737
(dp4738
g725
g4737
sssS'130'
p4739
g1715
sS'41'
p4740
(dp4741
S'234'
p4742
(dp4743
g725
g4742
ssS'1900'
p4744
(dp4745
g725
g4744
sssS'183'
p4746
(dp4747
S'1741'
p4748
(dp4749
g725
g4748
ssS'1914'
p4750
(dp4751
g725
g4750
sssS'187'
p4752
(dp4753
S'1904'
p4754
(dp4755
g725
g4754
ssS'1759'
p4756
(dp4757
g725
g4756
sssS'188'
p4758
(dp4759
S'1761'
p4760
(dp4761
g725
g4760
ssS'1935'
p4762
(dp4763
g725
g4762
sssS'189'
p4764
(dp4765
S'1780'
p4766
(dp4767
g725
g4766
sssS'146'
p4768
(dp4769
S'1928'
p4770
(dp4771
g725
g4770
ssS'1443'
p4772
(dp4773
g725
g4772
sssS'203'
p4774
(dp4775
S'1942'
p4776
(dp4777
g725
g4776
ssS'1964'
p4778
(dp4779
g725
g4778
sssS'206'
p4780
(dp4781
S'1987'
p4782
(dp4783
g725
g4782
ssS'1913'
p4784
(dp4785
g725
g4784
sssS'209'
p4786
(dp4787
S'1933'
p4788
(dp4789
g725
g4788
ssS'2001'
p4790
(dp4791
g725
g4790
sssS'191'
p4792
(dp4793
S'1902'
p4794
(dp4795
g725
g4794
ssS'1795'
p4796
(dp4797
g725
g4796
sssS'148'
p4798
(dp4799
S'1936'
p4800
(dp4801
g725
g4800
ssS'1448'
p4802
(dp4803
g725
g4802
sssS'109'
p4804
(dp4805
S'1024'
p4806
(dp4807
g725
g4806
sssS'71'
p4808
(dp4809
S'641'
p4810
(dp4811
g725
g4810
ssS'1927'
p4812
(dp4813
g725
g4812
sssS'70'
p4814
(dp4815
S'1903'
p4816
(dp4817
g725
g4816
ssS'575'
p4818
(dp4819
g725
g4818
sssS'90'
p4820
(dp4821
S'891'
p4822
(dp4823
g725
g4822
ssS'1901'
p4824
(dp4825
g725
g4824
sssS'166'
p4826
g2671
sS'160'
p4827
g3005
sS'222'
p4828
(dp4829
S'1932'
p4830
(dp4831
g725
g4830
ssS'2062'
p4832
(dp4833
g725
g4832
sssS'162'
p4834
(dp4835
S'1571'
p4836
(dp4837
g725
g4836
ssS'1909'
p4838
(dp4839
g725
g4838
sssS'60'
p4840
(dp4841
S'1920'
p4842
(dp4843
g725
g4842
ssS'513'
p4844
(dp4845
g725
g4844
sssS'15'
p4846
(dp4847
S'1922'
p4848
(dp4849
g725
g4848
ssS'86'
p4850
(dp4851
g725
g4850
sssS'17'
p4852
(dp4853
S'88'
p4854
(dp4855
g725
g4854
ssS'1944'
p4856
(dp4857
g725
g4856
sssS'18'
p4858
(dp4859
S'1925'
p4860
(dp4861
g725
g4860
ssS'96'
p4862
(dp4863
g725
g4862
sssS'50'
p4864
g4437
sS'232'
p4865
(dp4866
S'2096'
p4867
(dp4868
g725
g4867
ssS'1912'
p4869
(dp4870
g725
g4869
sssS'63'
p4871
(dp4872
S'1907'
p4873
(dp4874
g725
g4873
ssS'526'
p4875
(dp4876
g725
g4875
sssS'136'
p4877
g2451
ssg209
(dp4878
S'146'
p4879
(dp4880
S'1445'
p4881
(dp4882
g725
g4881
ssS'1874'
p4883
(dp4884
g725
g4883
sssS'200'
p4885
g4631
sS'154'
p4886
(dp4887
S'1528'
p4888
(dp4889
g725
g4888
ssS'1864'
p4890
(dp4891
g725
g4890
sssS'50'
p4892
g4011
sS'41'
p4893
(dp4894
S'260'
p4895
(dp4896
g725
g4895
ssS'1867'
p4897
(dp4898
g725
g4897
sssS'115'
p4899
(dp4900
S'1877'
p4901
(dp4902
g725
g4901
sssS'109'
p4903
(dp4904
S'1870'
p4905
(dp4906
g725
g4905
sssS'168'
p4907
(dp4908
S'1616'
p4909
(dp4910
g725
g4909
sssS'136'
p4911
g1961
sS'70'
p4912
(dp4913
S'623'
p4914
(dp4915
g725
g4914
ssS'1869'
p4916
(dp4917
g725
g4916
sssS'102'
p4918
(dp4919
S'1875'
p4920
(dp4921
g725
g4920
sssS'69'
p4922
(dp4923
S'1878'
p4924
(dp4925
g725
g4924
sssS'80'
p4926
(dp4927
S'1872'
p4928
(dp4929
g725
g4928
ssS'756'
p4930
(dp4931
g725
g4930
sssS'192'
p4932
(dp4933
S'1876'
p4934
(dp4935
g725
g4934
ssS'1824'
p4936
(dp4937
g725
g4936
sssS'173'
p4938
(dp4939
S'1667'
p4940
(dp4941
g725
g4940
ssS'1879'
p4942
(dp4943
g725
g4942
sssS'118'
p4944
g3669
sS'84'
p4945
(dp4946
S'1865'
p4947
(dp4948
g725
g4947
sssS'163'
p4949
g3186
ssg212
(dp4950
S'118'
p4951
g3675
sS'25'
p4952
g2752
sS'189'
p4953
(dp4954
S'1855'
p4955
(dp4956
g725
g4955
sssS'154'
p4957
(dp4958
S'1481'
p4959
(dp4960
g725
g4959
ssS'1853'
p4961
(dp4962
g725
g4961
sssS'200'
p4963
g4637
sS'50'
p4964
g4017
sS'41'
p4965
(dp4966
S'229'
p4967
(dp4968
g725
g4967
ssS'1857'
p4969
(dp4970
g725
g4969
sssS'115'
p4971
(dp4972
S'1854'
p4973
(dp4974
g725
g4973
sssS'109'
p4975
(dp4976
S'1861'
p4977
(dp4978
g725
g4977
sssS'136'
p4979
g1967
sS'70'
p4980
(dp4981
S'572'
p4982
(dp4983
g725
g4982
ssS'1860'
p4984
(dp4985
g725
g4984
sssS'102'
p4986
(dp4987
S'955'
p4988
(dp4989
g725
g4988
sssS'192'
p4990
(dp4991
S'1851'
p4992
(dp4993
g725
g4992
ssS'1803'
p4994
(dp4995
g725
g4994
sssS'173'
p4996
(dp4997
S'1858'
p4998
(dp4999
g725
g4998
ssS'1668'
p5000
(dp5001
g725
g5000
sssS'87'
p5002
(dp5003
S'862'
p5004
(dp5005
g725
g5004
ssssg215
(dp5006
S'154'
p5007
(dp5008
S'1499'
p5009
(dp5010
g725
g5009
ssS'1881'
p5011
(dp5012
g725
g5011
sssS'80'
p5013
(dp5014
S'714'
p5015
(dp5016
g725
g5015
ssS'1883'
p5017
(dp5018
g725
g5017
sssS'37'
p5019
(dp5020
S'207'
p5021
(dp5022
g725
g5021
sssS'50'
p5023
g4023
sS'41'
p5024
(dp5025
S'262'
p5026
(dp5027
g725
g5026
ssS'1884'
p5028
(dp5029
g725
g5028
ssssg218
(dp5030
S'80'
p5031
(dp5032
S'690'
p5033
(dp5034
g725
g5033
ssS'1719'
p5035
(dp5036
g725
g5035
sssS'154'
p5037
(dp5038
S'1480'
p5039
(dp5040
g725
g5039
ssS'1718'
p5041
(dp5042
g725
g5041
ssssg221
(dp5043
S'11'
p5044
(dp5045
S'73'
p5046
(dp5047
g725
g5046
sssS'200'
p5048
g4793
sS'134'
p5049
g2596
sS'50'
p5050
g4029
sS'192'
p5051
(dp5052
S'1807'
p5053
(dp5054
g725
g5053
ssS'1791'
p5055
(dp5056
g725
g5055
sssS'136'
p5057
g1973
sS'70'
p5058
(dp5059
S'610'
p5060
(dp5061
g725
g5060
ssS'1794'
p5062
(dp5063
g725
g5062
sssS'80'
p5064
(dp5065
S'741'
p5066
(dp5067
g725
g5066
ssS'1797'
p5068
(dp5069
g725
g5068
sssS'101'
p5070
(dp5071
S'948'
p5072
(dp5073
g725
g5072
sssS'173'
p5074
(dp5075
S'1790'
p5076
(dp5077
g725
g5076
ssS'1671'
p5078
(dp5079
g725
g5078
ssssg224
(dp5080
S'120'
p5081
g3308
sS'130'
p5082
g1381
sS'171'
p5083
(dp5084
S'1788'
p5085
(dp5086
g725
g5085
sssS'70'
p5087
(dp5088
S'626'
p5089
(dp5090
g725
g5089
ssS'1785'
p5091
(dp5092
g725
g5091
sssS'80'
p5093
(dp5094
S'760'
p5095
(dp5096
g725
g5095
ssS'1787'
p5097
(dp5098
g725
g5097
sssS'172'
p5099
(dp5100
S'1784'
p5101
(dp5102
g725
g5101
sssS'84'
p5103
(dp5104
S'811'
p5105
(dp5106
g725
g5105
ssssg227
(dp5107
S'200'
p5108
g4648
sS'154'
p5109
(dp5110
S'1517'
p5111
(dp5112
g725
g5111
ssS'1844'
p5113
(dp5114
g725
g5113
sssS'70'
p5115
(dp5116
S'613'
p5117
(dp5118
g725
g5117
ssS'1845'
p5119
(dp5120
g725
g5119
sssS'50'
p5121
g4033
sS'53'
p5122
g4535
sS'41'
p5123
(dp5124
S'238'
p5125
(dp5126
g725
g5125
sssg113
g3093
sS'130'
p5127
g1387
sS'136'
p5128
g1979
sS'134'
p5129
g2606
sS'80'
p5130
(dp5131
S'1849'
p5132
(dp5133
g725
g5132
ssS'745'
p5134
(dp5135
g725
g5134
ssssg230
(dp5136
S'216'
p5137
g735
sS'152'
p5138
(dp5139
S'1456'
p5140
(dp5141
g725
g5140
ssS'1822'
p5142
(dp5143
g725
g5142
sssS'135'
p5144
g2552
sS'195'
p5145
g4933
sS'194'
p5146
g4991
sS'70'
p5147
(dp5148
S'1806'
p5149
(dp5150
g725
g5149
ssS'578'
p5151
(dp5152
g725
g5151
sssS'176'
p5153
(dp5154
S'1702'
p5155
(dp5156
g725
g5155
ssS'1834'
p5157
(dp5158
g725
g5157
sssS'218'
p5159
g1061
sS'68'
p5160
(dp5161
S'1831'
p5162
(dp5163
g725
g5162
ssS'545'
p5164
(dp5165
g725
g5164
sssS'63'
p5166
(dp5167
S'524'
p5168
(dp5169
g725
g5168
ssS'1810'
p5170
(dp5171
g725
g5170
sssS'111'
p5172
(dp5173
S'1032'
p5174
(dp5175
g725
g5174
ssS'1819'
p5176
(dp5177
g725
g5176
sssS'136'
p5178
g1985
sS'66'
p5179
(dp5180
S'541'
p5181
(dp5182
g725
g5181
ssS'1812'
p5183
(dp5184
g725
g5183
sssS'134'
p5185
g2610
sS'82'
p5186
(dp5187
S'784'
p5188
(dp5189
g725
g5188
ssS'1839'
p5190
(dp5191
g725
g5190
sssS'83'
p5192
(dp5193
S'1836'
p5194
(dp5195
g725
g5194
ssS'792'
p5196
(dp5197
g725
g5196
sssS'80'
p5198
(dp5199
S'697'
p5200
(dp5201
g725
g5200
ssS'1828'
p5202
(dp5203
g725
g5202
sssS'173'
p5204
(dp5205
S'1681'
p5206
(dp5207
g725
g5206
ssS'1837'
p5208
(dp5209
g725
g5208
sssS'118'
p5210
g3687
sS'84'
p5211
(dp5212
S'818'
p5213
(dp5214
g725
g5213
sssS'154'
p5215
(dp5216
S'1798'
p5217
(dp5218
g725
g5217
ssS'1487'
p5219
(dp5220
g725
g5219
sssS'24'
p5221
g2706
sS'48'
p5222
(dp5223
S'1821'
p5224
(dp5225
g725
g5224
ssS'324'
p5226
(dp5227
g725
g5226
sssS'223'
p5228
(dp5229
S'2063'
p5230
(dp5231
g725
g5230
ssS'1820'
p5232
(dp5233
g725
g5232
sssS'44'
p5234
(dp5235
S'294'
p5236
(dp5237
g725
g5236
ssS'1823'
p5238
(dp5239
g725
g5238
sssS'172'
p5240
(dp5241
S'1647'
p5242
(dp5243
g725
g5242
ssS'1805'
p5244
(dp5245
g725
g5244
sssS'183'
p5246
(dp5247
S'1814'
p5248
(dp5249
g725
g5248
ssS'1738'
p5250
(dp5251
g725
g5250
sssS'181'
p5252
(dp5253
S'1841'
p5254
(dp5255
g725
g5254
ssS'1729'
p5256
(dp5257
g725
g5256
sssg644
(dp5258
S'1817'
p5259
(dp5260
g725
g5259
sssS'189'
p5261
(dp5262
S'1763'
p5263
(dp5264
g725
g5263
ssS'1830'
p5265
(dp5266
g725
g5265
sssS'200'
p5267
g4652
sS'203'
p5268
(dp5269
S'1838'
p5270
(dp5271
g725
g5270
ssS'1951'
p5272
(dp5273
g725
g5272
sssS'206'
p5274
(dp5275
S'1984'
p5276
(dp5277
g725
g5276
ssS'1813'
p5278
(dp5279
g725
g5278
sssS'191'
p5280
g5052
sS'148'
p5281
(dp5282
S'1447'
p5283
(dp5284
g725
g5283
ssS'1832'
p5285
(dp5286
g725
g5285
sssS'168'
p5287
(dp5288
S'1608'
p5289
(dp5290
g725
g5289
ssS'1816'
p5291
(dp5292
g725
g5291
sssS'71'
p5293
(dp5294
S'1827'
p5295
(dp5296
g725
g5295
sssS'127'
p5297
g3550
sS'102'
p5298
(dp5299
S'951'
p5300
(dp5301
g725
g5300
sssS'103'
p5302
(dp5303
S'962'
p5304
(dp5305
g725
g5304
ssS'1800'
p5306
(dp5307
g725
g5306
sssS'160'
p5308
g3017
sS'162'
p5309
(dp5310
S'1568'
p5311
(dp5312
g725
g5311
ssS'1811'
p5313
(dp5314
g725
g5313
sssS'163'
p5315
g3226
sS'11'
p5316
(dp5317
S'62'
p5318
(dp5319
g725
g5318
ssS'1799'
p5320
(dp5321
g725
g5320
sssS'59'
p5322
g3823
sS'18'
p5323
(dp5324
S'90'
p5325
(dp5326
g725
g5325
ssS'1826'
p5327
(dp5328
g725
g5327
sssS'56'
p5329
g3918
sS'50'
p5330
g4039
sS'137'
p5331
g1790
sS'90'
p5332
(dp5333
S'888'
p5334
(dp5335
g725
g5334
ssS'1804'
p5336
(dp5337
g725
g5336
ssssg233
(dp5338
S'200'
p5339
g4658
sS'203'
p5340
(dp5341
S'1061'
p5342
(dp5343
g725
g5342
sssS'195'
p5344
g4900
sS'54'
p5345
g3887
sS'44'
p5346
(dp5347
S'1057'
p5348
(dp5349
g725
g5348
sssS'45'
p5350
(dp5351
S'1060'
p5352
(dp5353
g725
g5352
sssS'50'
p5354
g4045
sS'118'
p5355
g3693
sS'130'
p5356
g1393
sS'136'
p5357
g1991
sS'127'
p5358
g3530
sS'194'
p5359
g4972
sS'138'
p5360
g2651
sS'106'
p5361
(dp5362
S'994'
p5363
(dp5364
g725
g5363
sssS'87'
p5365
(dp5366
S'875'
p5367
(dp5368
g725
g5367
ssS'1054'
p5369
(dp5370
g725
g5369
sssS'84'
p5371
(dp5372
S'1055'
p5373
(dp5374
g725
g5373
ssS'822'
p5375
(dp5376
g725
g5375
sssS'105'
p5377
(dp5378
S'979'
p5379
(dp5380
g725
g5379
ssssg236
(dp5381
S'185'
p5382
(dp5383
S'1748'
p5384
(dp5385
g725
g5384
sssS'50'
p5386
g4051
sS'22'
p5387
g2940
sS'136'
p5388
g1997
ssg239
(dp5389
S'59'
p5390
g3837
sS'204'
p5391
(dp5392
S'1970'
p5393
(dp5394
g725
g5393
sssS'32'
p5395
(dp5396
S'886'
p5397
(dp5398
g725
g5397
sssS'50'
p5399
g4057
sS'61'
p5400
(dp5401
S'883'
p5402
(dp5403
g725
g5402
sssS'104'
p5404
(dp5405
S'884'
p5406
(dp5407
g725
g5406
ssssg242
(dp5408
S'18'
p5409
(dp5410
S'99'
p5411
(dp5412
g725
g5411
ssS'887'
p5413
(dp5414
g725
g5413
ssssg245
(dp5415
S'224'
p5416
(dp5417
S'1043'
p5418
(dp5419
g725
g5418
sssS'212'
p5420
g820
sS'21'
p5421
g2922
sS'125'
p5422
g3470
sS'44'
p5423
(dp5424
S'1036'
p5425
(dp5426
g725
g5425
sssS'136'
p5427
g2003
sS'50'
p5428
g4063
sS'35'
p5429
(dp5430
S'195'
p5431
(dp5432
g725
g5431
sssS'41'
p5433
(dp5434
S'1041'
p5435
(dp5436
g725
g5435
ssS'246'
p5437
(dp5438
g725
g5437
sssS'77'
p5439
(dp5440
S'673'
p5441
(dp5442
g725
g5441
sssS'130'
p5443
g1399
sS'168'
p5444
(dp5445
S'1038'
p5446
(dp5447
g725
g5446
sssS'97'
p5448
(dp5449
S'1039'
p5450
(dp5451
g725
g5450
sssS'210'
p5452
g930
sS'82'
p5453
(dp5454
S'1044'
p5455
(dp5456
g725
g5455
sssS'80'
p5457
(dp5458
S'704'
p5459
(dp5460
g725
g5459
ssS'1045'
p5461
(dp5462
g725
g5461
sssS'192'
p5463
g5173
sS'93'
p5464
(dp5465
S'905'
p5466
(dp5467
g725
g5466
sssS'84'
p5468
(dp5469
S'1034'
p5470
(dp5471
g725
g5470
sssS'154'
p5472
(dp5473
S'1033'
p5474
(dp5475
g725
g5474
ssS'1492'
p5476
(dp5477
g725
g5476
ssssg248
(dp5478
S'13'
p5479
(dp5480
S'1028'
p5481
(dp5482
g725
g5481
sssS'130'
p5483
g1405
sS'80'
p5484
(dp5485
S'1030'
p5486
(dp5487
g725
g5486
sssS'70'
p5488
(dp5489
S'585'
p5490
(dp5491
g725
g5490
ssS'1029'
p5492
(dp5493
g725
g5492
ssssg251
(dp5494
S'201'
p5495
g4593
sS'130'
p5496
g1411
ssg254
(dp5497
S'19'
p5498
(dp5499
S'105'
p5500
(dp5501
g725
g5500
sssS'175'
p5502
(dp5503
S'1048'
p5504
(dp5505
g725
g5504
sssS'50'
p5506
g4069
sS'84'
p5507
(dp5508
S'824'
p5509
(dp5510
g725
g5509
ssS'1046'
p5511
(dp5512
g725
g5511
ssssg257
(dp5513
S'152'
p5514
(dp5515
S'1470'
p5516
(dp5517
g725
g5516
sssS'59'
p5518
g3849
sS'157'
p5519
(dp5520
S'788'
p5521
(dp5522
g725
g5521
sssS'44'
p5523
(dp5524
S'790'
p5525
(dp5526
g725
g5525
sssS'192'
p5527
g5187
sS'130'
p5528
g1423
sS'111'
p5529
g5454
sS'136'
p5530
g2015
sS'229'
p5531
(dp5532
S'789'
p5533
(dp5534
g725
g5533
sssS'103'
p5535
(dp5536
S'967'
p5537
(dp5538
g725
g5537
sssS'128'
p5539
g3613
sS'205'
p5540
(dp5541
S'783'
p5542
(dp5543
g725
g5542
sssS'219'
p5544
g1128
sS'173'
p5545
(dp5546
S'1691'
p5547
(dp5548
g725
g5547
sssS'104'
p5549
(dp5550
S'972'
p5551
(dp5552
g725
g5551
sssS'105'
p5553
(dp5554
S'786'
p5555
(dp5556
g725
g5555
ssssg260
(dp5557
S'200'
p5558
g4693
sS'45'
p5559
(dp5560
S'313'
p5561
(dp5562
g725
g5561
sssS'192'
p5563
g5193
sS'136'
p5564
g2021
sS'90'
p5565
(dp5566
S'794'
p5567
(dp5568
g725
g5567
ssS'893'
p5569
(dp5570
g725
g5569
sssS'106'
p5571
(dp5572
S'795'
p5573
(dp5574
g725
g5573
ssssg263
(dp5575
S'212'
p5576
g828
sS'213'
p5577
g893
sS'210'
p5578
g938
sS'218'
p5579
g1079
sS'219'
p5580
g1132
sS'132'
p5581
g1229
sS'131'
p5582
g1273
sS'130'
p5583
g1427
sS'136'
p5584
g2027
sS'135'
p5585
g2563
sS'134'
p5586
g2628
sS'138'
p5587
g2659
sS'25'
p5588
g2781
sS'27'
p5589
g2839
sS'20'
p5590
g2883
sS'22'
p5591
g2977
sS'95'
p5592
(dp5593
S'687'
p5594
(dp5595
g725
g5594
ssS'911'
p5596
(dp5597
g725
g5596
sssS'29'
p5598
g3065
sg113
g3112
sg116
g3142
sg119
g3174
sS'96'
p5599
(dp5600
S'769'
p5601
(dp5602
g725
g5601
ssS'919'
p5603
(dp5604
g725
g5603
sssS'87'
p5605
(dp5606
S'744'
p5607
(dp5608
g725
g5607
ssS'870'
p5609
(dp5610
g725
g5609
sssS'120'
p5611
g3345
sS'122'
p5612
g3394
sS'123'
p5613
g3419
sS'125'
p5614
g3479
sS'127'
p5615
g3546
sS'128'
p5616
g3636
sS'129'
p5617
g3649
sS'91'
p5618
(dp5619
S'773'
p5620
(dp5621
g725
g5620
sssS'55'
p5622
g3872
sS'56'
p5623
g3906
sS'50'
p5624
g4079
sS'52'
p5625
g4558
sS'198'
p5626
(dp5627
S'759'
p5628
(dp5629
g725
g5628
ssS'1890'
p5630
(dp5631
g725
g5630
sssS'195'
p5632
g4927
sS'197'
p5633
g5014
sS'67'
p5634
(dp5635
S'683'
p5636
(dp5637
g725
g5636
ssS'544'
p5638
(dp5639
g725
g5638
sssS'191'
p5640
g5065
sS'190'
p5641
g5094
sS'193'
p5642
g5131
sS'192'
p5643
g5199
sS'117'
p5644
(dp5645
S'1068'
p5646
(dp5647
g725
g5646
sssS'111'
p5648
g5458
sS'110'
p5649
g5485
sS'69'
p5650
(dp5651
S'565'
p5652
(dp5653
g725
g5652
ssS'703'
p5654
(dp5655
g725
g5654
sssS'119'
p5656
g3285
sS'118'
p5657
g3721
sS'84'
p5658
(dp5659
S'706'
p5660
(dp5661
g725
g5660
ssS'814'
p5662
(dp5663
g725
g5662
sssS'109'
p5664
(dp5665
S'1025'
p5666
(dp5667
g725
g5666
ssS'761'
p5668
(dp5669
g725
g5668
sssS'102'
p5670
(dp5671
S'959'
p5672
(dp5673
g725
g5672
sssS'101'
p5674
(dp5675
S'717'
p5676
(dp5677
g725
g5676
ssS'949'
p5678
(dp5679
g725
g5678
sssS'106'
p5680
(dp5681
S'1007'
p5682
(dp5683
g725
g5682
ssS'684'
p5684
(dp5685
g725
g5684
sssS'107'
p5686
(dp5687
S'764'
p5688
(dp5689
g725
g5688
ssS'1008'
p5690
(dp5691
g725
g5690
sssS'105'
p5692
(dp5693
S'990'
p5694
(dp5695
g725
g5694
sssS'37'
p5696
(dp5697
S'720'
p5698
(dp5699
g725
g5698
sssS'35'
p5700
(dp5701
S'749'
p5702
(dp5703
g725
g5702
ssS'193'
p5704
(dp5705
g725
g5704
sssS'34'
p5706
(dp5707
S'183'
p5708
(dp5709
g725
g5708
ssS'686'
p5710
(dp5711
g725
g5710
sssS'160'
p5712
g3011
sS'178'
p5713
g5032
sS'176'
p5714
(dp5715
S'725'
p5716
(dp5717
g725
g5716
ssS'1715'
p5718
(dp5719
g725
g5718
sssS'173'
p5720
(dp5721
S'774'
p5722
(dp5723
g725
g5722
ssS'1676'
p5724
(dp5725
g725
g5724
sssS'172'
p5726
(dp5727
S'1660'
p5728
(dp5729
g725
g5728
sssS'171'
p5730
(dp5731
S'1644'
p5732
(dp5733
g725
g5732
ssS'701'
p5734
(dp5735
g725
g5734
sssS'183'
p5736
(dp5737
S'1742'
p5738
(dp5739
g725
g5738
sssS'180'
p5740
(dp5741
S'1726'
p5742
(dp5743
g725
g5742
ssS'695'
p5744
(dp5745
g725
g5744
sssg437
(dp5746
S'771'
p5747
(dp5748
g725
g5747
ssS'15'
p5749
(dp5750
g725
g5749
sssS'186'
p5751
(dp5752
S'1757'
p5753
(dp5754
g725
g5753
sssS'185'
p5755
(dp5756
S'766'
p5757
(dp5758
g725
g5757
ssS'1752'
p5759
(dp5760
g725
g5759
sssS'189'
p5761
(dp5762
S'1781'
p5763
(dp5764
g725
g5763
ssS'722'
p5765
(dp5766
g725
g5765
sssS'98'
p5767
(dp5768
S'730'
p5769
(dp5770
g725
g5769
ssS'938'
p5771
(dp5772
g725
g5771
sssS'168'
p5773
(dp5774
S'1620'
p5775
(dp5776
g725
g5775
ssS'702'
p5777
(dp5778
g725
g5777
sssS'169'
p5779
(dp5780
S'1628'
p5781
(dp5782
g725
g5781
ssS'707'
p5783
(dp5784
g725
g5783
sssS'229'
p5785
(dp5786
S'751'
p5787
(dp5788
g725
g5787
sssS'164'
p5789
g4585
sS'165'
p5790
g1030
sS'92'
p5791
(dp5792
S'898'
p5793
(dp5794
g725
g5793
sssS'223'
p5795
(dp5796
S'2072'
p5797
(dp5798
g725
g5797
ssS'750'
p5799
(dp5800
g725
g5799
sssS'162'
p5801
(dp5802
S'1572'
p5803
(dp5804
g725
g5803
ssS'743'
p5805
(dp5806
g725
g5805
sssS'163'
p5807
g3220
sS'11'
p5808
(dp5809
S'682'
p5810
(dp5811
g725
g5810
sssS'10'
p5812
(dp5813
S'57'
p5814
(dp5815
g725
g5814
ssS'754'
p5816
(dp5817
g725
g5816
sssS'14'
p5818
(dp5819
S'689'
p5820
(dp5821
g725
g5820
ssS'84'
p5822
(dp5823
g725
g5822
sssS'19'
p5824
(dp5825
S'699'
p5826
(dp5827
g725
g5826
ssS'104'
p5828
(dp5829
g725
g5828
sssS'18'
p5830
(dp5831
S'715'
p5832
(dp5833
g725
g5832
sssS'152'
p5834
(dp5835
S'1471'
p5836
(dp5837
g725
g5836
ssS'711'
p5838
(dp5839
g725
g5838
sssS'155'
p5840
(dp5841
S'1543'
p5842
(dp5843
g725
g5842
ssS'721'
p5844
(dp5845
g725
g5844
sssS'154'
p5846
(dp5847
S'733'
p5848
(dp5849
g725
g5848
ssS'1534'
p5850
(dp5851
g725
g5850
sssS'157'
p5852
(dp5853
S'692'
p5854
(dp5855
g725
g5854
ssS'1551'
p5856
(dp5857
g725
g5856
sssS'230'
p5858
(dp5859
S'2094'
p5860
(dp5861
g725
g5860
ssS'742'
p5862
(dp5863
g725
g5862
sssS'231'
p5864
(dp5865
S'2095'
p5866
(dp5867
g725
g5866
ssS'727'
p5868
(dp5869
g725
g5868
sssS'48'
p5870
(dp5871
S'708'
p5872
(dp5873
g725
g5872
ssS'341'
p5874
(dp5875
g725
g5874
sssS'49'
p5876
(dp5877
S'705'
p5878
(dp5879
g725
g5878
ssS'350'
p5880
(dp5881
g725
g5880
sssS'86'
p5882
(dp5883
S'847'
p5884
(dp5885
g725
g5884
ssS'779'
p5886
(dp5887
g725
g5886
sssS'44'
p5888
(dp5889
S'752'
p5890
(dp5891
g725
g5890
ssS'304'
p5892
(dp5893
g725
g5892
sssS'45'
p5894
(dp5895
S'319'
p5896
(dp5897
g725
g5896
ssS'728'
p5898
(dp5899
g725
g5898
sssS'43'
p5900
(dp5901
S'691'
p5902
(dp5903
g725
g5902
ssS'293'
p5904
(dp5905
g725
g5904
sssS'41'
p5906
(dp5907
S'739'
p5908
(dp5909
g725
g5908
ssS'271'
p5910
(dp5911
g725
g5910
sssg638
(dp5912
S'685'
p5913
(dp5914
g725
g5913
sssg641
(dp5915
S'713'
p5916
(dp5917
g725
g5916
sssg644
(dp5918
S'48'
p5919
(dp5920
g725
g5919
ssS'747'
p5921
(dp5922
g725
g5921
sssS'200'
p5923
g4699
sS'203'
p5924
(dp5925
S'777'
p5926
(dp5927
g725
g5926
sssS'205'
p5928
(dp5929
S'698'
p5930
(dp5931
g725
g5930
ssS'1983'
p5932
(dp5933
g725
g5932
sssS'204'
p5934
(dp5935
S'767'
p5936
(dp5937
g725
g5936
ssS'1969'
p5938
(dp5939
g725
g5938
sssS'77'
p5940
(dp5941
S'731'
p5942
(dp5943
g725
g5942
ssS'669'
p5944
(dp5945
g725
g5944
sssS'75'
p5946
(dp5947
S'737'
p5948
(dp5949
g725
g5948
ssS'660'
p5950
(dp5951
g725
g5950
sssS'72'
p5952
(dp5953
S'644'
p5954
(dp5955
g725
g5954
sssS'70'
p5956
(dp5957
S'693'
p5958
(dp5959
g725
g5958
ssS'628'
p5960
(dp5961
g725
g5960
sssS'79'
p5962
(dp5963
S'757'
p5964
(dp5965
g725
g5964
sssS'78'
p5966
(dp5967
S'775'
p5968
(dp5969
g725
g5968
ssS'676'
p5970
(dp5971
g725
g5970
ssssg266
(dp5972
S'13'
p5973
(dp5974
S'781'
p5975
(dp5976
g725
g5975
ssS'78'
p5977
(dp5978
g725
g5977
sssS'130'
p5979
g1433
ssg269
(dp5980
S'49'
p5981
(dp5982
S'844'
p5983
(dp5984
g725
g5983
sssS'185'
p5985
(dp5986
S'1751'
p5987
(dp5988
g725
g5987
sssS'50'
p5989
g4404
sS'41'
p5990
(dp5991
S'851'
p5992
(dp5993
g725
g5992
ssS'286'
p5994
(dp5995
g725
g5994
sssS'75'
p5996
(dp5997
S'849'
p5998
(dp5999
g725
g5998
ssS'659'
p6000
(dp6001
g725
g6000
sssS'130'
p6002
g1439
sS'171'
p6003
(dp6004
S'1645'
p6005
(dp6006
g725
g6005
sssS'70'
p6007
(dp6008
S'637'
p6009
(dp6010
g725
g6009
sssg644
(dp6011
S'850'
p6012
(dp6013
g725
g6012
sssS'80'
p6014
g5883
sS'172'
p6015
(dp6016
S'1659'
p6017
(dp6018
g725
g6017
sssS'84'
p6019
(dp6020
S'845'
p6021
(dp6022
g725
g6021
ssssg272
(dp6023
S'212'
p6024
g834
sS'213'
p6025
g897
sS'210'
p6026
g948
sS'159'
p6027
(dp6028
S'1555'
p6029
(dp6030
g725
g6029
sssS'194'
p6031
g5003
sS'127'
p6032
g3560
sS'115'
p6033
g5366
sS'130'
p6034
g1445
sS'65'
p6035
(dp6036
S'874'
p6037
(dp6038
g725
g6037
ssS'531'
p6039
(dp6040
g725
g6039
sssS'176'
p6041
(dp6042
S'1704'
p6043
(dp6044
g725
g6043
ssS'879'
p6045
(dp6046
g725
g6045
sssS'69'
p6047
(dp6048
S'552'
p6049
(dp6050
g725
g6049
sssS'80'
p6051
g5606
sS'230'
p6052
(dp6053
S'873'
p6054
(dp6055
g725
g6054
sssS'118'
p6056
g3732
sS'84'
p6057
(dp6058
S'855'
p6059
(dp6060
g725
g6059
sssS'154'
p6061
(dp6062
S'854'
p6063
(dp6064
g725
g6063
ssS'1516'
p6065
(dp6066
g725
g6065
sssS'25'
p6067
g2787
sS'101'
p6068
(dp6069
S'947'
p6070
(dp6071
g725
g6070
sssS'48'
p6072
(dp6073
S'857'
p6074
(dp6075
g725
g6074
sssS'41'
p6076
(dp6077
S'237'
p6078
(dp6079
g725
g6078
ssS'864'
p6080
(dp6081
g725
g6080
sssg644
(dp6082
S'880'
p6083
(dp6084
g725
g6083
sssS'105'
p6085
(dp6086
S'977'
p6087
(dp6088
g725
g6087
ssS'852'
p6089
(dp6090
g725
g6089
sssS'205'
p6091
(dp6092
S'1973'
p6093
(dp6094
g725
g6093
ssS'872'
p6095
(dp6096
g725
g6095
sssS'109'
p6097
(dp6098
S'868'
p6099
(dp6100
g725
g6099
ssS'1012'
p6101
(dp6102
g725
g6101
sssS'168'
p6103
(dp6104
S'1609'
p6105
(dp6106
g725
g6105
ssS'878'
p6107
(dp6108
g725
g6107
sssS'70'
p6109
(dp6110
S'612'
p6111
(dp6112
g725
g6111
ssS'867'
p6113
(dp6114
g725
g6113
sssS'90'
p6115
(dp6116
S'866'
p6117
(dp6118
g725
g6117
sssS'92'
p6119
(dp6120
S'897'
p6121
(dp6122
g725
g6121
sssS'97'
p6123
(dp6124
S'861'
p6125
(dp6126
g725
g6125
sssS'163'
p6127
g3236
sS'10'
p6128
(dp6129
S'860'
p6130
(dp6131
g725
g6130
sssS'189'
p6132
(dp6133
S'876'
p6134
(dp6135
g725
g6134
ssS'1766'
p6136
(dp6137
g725
g6136
sssS'30'
p6138
(dp6139
S'869'
p6140
(dp6141
g725
g6140
sssS'37'
p6142
(dp6143
S'200'
p6144
(dp6145
g725
g6144
sssS'50'
p6146
g3972
sS'123'
p6147
g3431
sS'136'
p6148
g2039
ssg275
(dp6149
S'150'
p6150
(dp6151
S'830'
p6152
(dp6153
g725
g6152
sssS'223'
p6154
(dp6155
S'2064'
p6156
(dp6157
g725
g6156
sssS'152'
p6158
(dp6159
S'1458'
p6160
(dp6161
g725
g6160
ssS'804'
p6162
(dp6163
g725
g6162
sssS'154'
p6164
(dp6165
S'1493'
p6166
(dp6167
g725
g6166
ssS'800'
p6168
(dp6169
g725
g6168
sssS'210'
p6170
g952
sS'211'
p6171
g997
sS'195'
p6172
g4946
sS'189'
p6173
(dp6174
S'1767'
p6175
(dp6176
g725
g6175
ssS'823'
p6177
(dp6178
g725
g6177
sssS'112'
p6179
g5508
sS'190'
p6180
g5104
sS'50'
p6181
g4087
sS'115'
p6182
g5372
sS'61'
p6183
(dp6184
S'514'
p6185
(dp6186
g725
g6185
sssS'130'
p6187
g1451
sS'111'
p6188
g5469
sS'65'
p6189
(dp6190
S'533'
p6191
(dp6192
g725
g6191
ssS'820'
p6193
(dp6194
g725
g6193
sssS'179'
p6195
g4618
sS'134'
p6196
g2618
sS'69'
p6197
(dp6198
S'554'
p6199
(dp6200
g725
g6199
ssS'828'
p6201
(dp6202
g725
g6201
sssS'80'
p6203
g5659
sS'86'
p6204
g6020
sS'87'
p6205
g6058
sS'213'
p6206
g903
sS'25'
p6207
g2793
sS'27'
p6208
g2847
sS'48'
p6209
(dp6210
S'803'
p6211
(dp6212
g725
g6211
ssS'328'
p6213
(dp6214
g725
g6213
sssS'96'
p6215
(dp6216
S'914'
p6217
(dp6218
g725
g6217
sssS'181'
p6219
(dp6220
S'836'
p6221
(dp6222
g725
g6221
sssS'45'
p6223
(dp6224
S'308'
p6225
(dp6226
g725
g6225
ssS'831'
p6227
(dp6228
g725
g6227
sssS'28'
p6229
g3060
sS'118'
p6230
g3727
sS'127'
p6231
g3566
sg437
(dp6232
S'825'
p6233
(dp6234
g725
g6233
sssS'185'
p6235
(dp6236
S'813'
p6237
(dp6238
g725
g6237
ssS'1747'
p6239
(dp6240
g725
g6239
sssg644
(dp6241
S'39'
p6242
(dp6243
g725
g6242
ssS'829'
p6244
(dp6245
g725
g6244
sssS'105'
p6246
(dp6247
S'797'
p6248
(dp6249
g725
g6248
ssS'978'
p6250
(dp6251
g725
g6250
sssS'200'
p6252
g4716
sS'203'
p6253
(dp6254
S'832'
p6255
(dp6256
g725
g6255
ssS'1953'
p6257
(dp6258
g725
g6257
sssS'205'
p6259
(dp6260
S'1974'
p6261
(dp6262
g725
g6261
ssS'817'
p6263
(dp6264
g725
g6263
sssS'78'
p6265
(dp6266
S'674'
p6267
(dp6268
g725
g6267
sssS'77'
p6269
(dp6270
S'667'
p6271
(dp6272
g725
g6271
ssS'840'
p6273
(dp6274
g725
g6273
sssS'98'
p6275
(dp6276
S'838'
p6277
(dp6278
g725
g6277
ssS'935'
p6279
(dp6280
g725
g6279
sssS'75'
p6281
(dp6282
S'805'
p6283
(dp6284
g725
g6283
sssS'109'
p6285
(dp6286
S'810'
p6287
(dp6288
g725
g6287
ssS'1013'
p6289
(dp6290
g725
g6289
sssS'168'
p6291
(dp6292
S'827'
p6293
(dp6294
g725
g6293
sssS'70'
p6295
(dp6296
S'586'
p6297
(dp6298
g725
g6297
ssS'809'
p6299
(dp6300
g725
g6299
sssS'128'
p6301
g3640
sS'165'
p6302
g1042
sS'192'
p6303
g5212
sS'106'
p6304
(dp6305
S'993'
p6306
(dp6307
g725
g6306
sssS'163'
p6308
g3242
sS'11'
p6309
(dp6310
S'63'
p6311
(dp6312
g725
g6311
ssS'799'
p6313
(dp6314
g725
g6313
sssS'120'
p6315
g3359
sS'38'
p6316
(dp6317
S'213'
p6318
(dp6319
g725
g6318
sssS'132'
p6320
g1241
sS'19'
p6321
(dp6322
S'819'
p6323
(dp6324
g725
g6323
sssS'37'
p6325
(dp6326
S'816'
p6327
(dp6328
g725
g6327
sssS'36'
p6329
(dp6330
S'197'
p6331
(dp6332
g725
g6331
sssS'35'
p6333
(dp6334
S'186'
p6335
(dp6336
g725
g6335
ssS'835'
p6337
(dp6338
g725
g6337
sssS'123'
p6339
g3435
sS'136'
p6340
g2045
ssg278
(dp6341
S'152'
p6342
(dp6343
S'1463'
p6344
(dp6345
g725
g6344
sssS'136'
p6346
g2051
sS'172'
p6347
(dp6348
S'843'
p6349
(dp6350
g725
g6349
ssssg281
(dp6351
S'152'
p6352
(dp6353
S'1468'
p6354
(dp6355
g725
g6354
ssS'1888'
p6356
(dp6357
g725
g6356
sssS'154'
p6358
(dp6359
S'1886'
p6360
(dp6361
g725
g6360
ssS'1530'
p6362
(dp6363
g725
g6362
sssS'44'
p6364
(dp6365
S'1889'
p6366
(dp6367
g725
g6366
sssS'50'
p6368
g4005
sS'130'
p6369
g1375
sS'136'
p6370
g1949
sS'70'
p6371
(dp6372
S'625'
p6373
(dp6374
g725
g6373
sssS'80'
p6375
g5627
ssg284
(dp6376
S'24'
p6377
g2692
sS'200'
p6378
g4781
sS'192'
p6379
g5275
sS'65'
p6380
(dp6381
S'539'
p6382
(dp6383
g725
g6382
sssS'102'
p6384
(dp6385
S'1989'
p6386
(dp6387
g725
g6386
sssS'173'
p6388
(dp6389
S'1985'
p6390
(dp6391
g725
g6390
ssS'1685'
p6392
(dp6393
g725
g6392
sssS'136'
p6394
g2487
ssg287
(dp6395
S'105'
p6396
(dp6397
S'2079'
p6398
(dp6399
g725
g6398
sssS'136'
p6400
g2069
sS'50'
p6401
g4093
sS'53'
p6402
g4545
sS'41'
p6403
(dp6404
S'248'
p6405
(dp6406
g725
g6405
ssssg290
(dp6407
S'50'
p6408
g4098
sS'104'
p6409
(dp6410
S'17'
p6411
(dp6412
g725
g6411
ssssg293
(dp6413
S'173'
p6414
(dp6415
S'1716'
p6416
(dp6417
g725
g6416
sssS'118'
p6418
g3708
sg296
(dp6419
S'31'
p6420
(dp6421
g725
g6420
ssssg296
(dp6422
S'177'
p6423
g6419
sS'173'
p6424
(dp6425
S'30'
p6426
(dp6427
g725
g6426
sssS'118'
p6428
g3744
ssg299
(dp6429
S'136'
p6430
g1823
sS'170'
p6431
(dp6432
S'1633'
p6433
(dp6434
g725
g6433
ssS'2077'
p6435
(dp6436
g725
g6435
ssssg302
(dp6437
S'173'
p6438
(dp6439
S'1674'
p6440
(dp6441
g725
g6440
ssS'1009'
p6442
(dp6443
g725
g6442
ssssg305
(dp6444
S'195'
p6445
g4904
sS'194'
p6446
g4976
sS'70'
p6447
(dp6448
S'1022'
p6449
(dp6450
g725
g6449
sssS'130'
p6451
g1457
sS'136'
p6452
g2081
sS'80'
p6453
g5665
sS'41'
p6454
(dp6455
S'1019'
p6456
(dp6457
g725
g6456
ssS'264'
p6458
(dp6459
g725
g6458
sssS'118'
p6460
g3774
sS'84'
p6461
g6286
sS'24'
p6462
g2688
sS'20'
p6463
g2872
sS'21'
p6464
g2918
sS'48'
p6465
(dp6466
S'1015'
p6467
(dp6468
g725
g6467
ssS'337'
p6469
(dp6470
g725
g6469
sssS'49'
p6471
(dp6472
S'347'
p6473
(dp6474
g725
g6473
ssS'1011'
p6475
(dp6476
g725
g6475
sssS'45'
p6477
(dp6478
S'1021'
p6479
(dp6480
g725
g6479
ssS'316'
p6481
(dp6482
g725
g6481
sssS'172'
p6483
(dp6484
S'1657'
p6485
(dp6486
g725
g6485
sssg113
g3085
sS'87'
p6487
g6098
sS'200'
p6488
g4805
sS'203'
p6489
(dp6490
S'1023'
p6491
(dp6492
g725
g6491
ssS'1963'
p6493
(dp6494
g725
g6493
sssS'127'
p6495
g3508
sS'106'
p6496
(dp6497
S'1014'
p6498
(dp6499
g725
g6498
ssS'1005'
p6500
(dp6501
g725
g6500
sssS'105'
p6502
(dp6503
S'1010'
p6504
(dp6505
g725
g6504
sssS'50'
p6506
g4104
ssg308
(dp6507
S'118'
p6508
g3786
sS'152'
p6509
(dp6510
S'1472'
p6511
(dp6512
g725
g6511
ssS'953'
p6513
(dp6514
g725
g6513
sssS'206'
p6515
g6385
sS'195'
p6516
g4919
sS'194'
p6517
g4987
sS'127'
p6518
g3542
sS'50'
p6519
g4110
sS'192'
p6520
g5299
sS'136'
p6521
g2087
sS'70'
p6522
(dp6523
S'958'
p6524
(dp6525
g725
g6524
ssS'595'
p6526
(dp6527
g725
g6526
sssS'80'
p6528
g5671
sS'41'
p6529
(dp6530
S'275'
p6531
(dp6532
g725
g6531
ssS'954'
p6533
(dp6534
g725
g6533
sssS'172'
p6535
(dp6536
S'957'
p6537
(dp6538
g725
g6537
sssS'105'
p6539
(dp6540
S'991'
p6541
(dp6542
g725
g6541
ssssg311
(dp6543
S'200'
p6544
g4681
sS'154'
p6545
(dp6546
S'965'
p6547
(dp6548
g725
g6547
ssS'1476'
p6549
(dp6550
g725
g6549
sssS'35'
p6551
(dp6552
S'187'
p6553
(dp6554
g725
g6553
sssS'192'
p6555
g5303
sS'168'
p6556
(dp6557
S'1610'
p6558
(dp6559
g725
g6558
sssS'136'
p6560
g2093
sS'70'
p6561
(dp6562
S'966'
p6563
(dp6564
g725
g6563
ssS'567'
p6565
(dp6566
g725
g6565
sssS'82'
p6567
g5536
sS'41'
p6568
(dp6569
S'223'
p6570
(dp6571
g725
g6570
ssS'969'
p6572
(dp6573
g725
g6572
sssS'173'
p6574
(dp6575
S'1664'
p6576
(dp6577
g725
g6576
ssS'963'
p6578
(dp6579
g725
g6578
ssssg314
(dp6580
S'70'
p6581
(dp6582
S'598'
p6583
(dp6584
g725
g6583
ssS'945'
p6585
(dp6586
g725
g6585
ssssg317
(dp6587
S'37'
p6588
(dp6589
S'210'
p6590
(dp6591
g725
g6590
sssS'191'
p6592
g5071
sS'41'
p6593
(dp6594
S'263'
p6595
(dp6596
g725
g6595
ssS'950'
p6597
(dp6598
g725
g6597
sssS'130'
p6599
g1463
sS'136'
p6600
g2099
sS'80'
p6601
g5675
sS'87'
p6602
g6069
ssg320
(dp6603
S'154'
p6604
(dp6605
S'1477'
p6606
(dp6607
g725
g6606
sssS'211'
p6608
g969
sS'127'
p6609
g3556
sS'115'
p6610
g5362
sS'130'
p6611
g1467
sS'136'
p6612
g2105
sS'83'
p6613
g5572
sS'68'
p6614
(dp6615
S'548'
p6616
(dp6617
g725
g6616
sssS'176'
p6618
(dp6619
S'1705'
p6620
(dp6621
g725
g6620
ssS'1000'
p6622
(dp6623
g725
g6622
sssS'80'
p6624
g5681
sS'84'
p6625
g6305
sS'22'
p6626
g2983
sS'41'
p6627
(dp6628
S'224'
p6629
(dp6630
g725
g6629
ssS'1002'
p6631
(dp6632
g725
g6631
sssS'96'
p6633
(dp6634
S'916'
p6635
(dp6636
g725
g6635
sssg644
(dp6637
S'40'
p6638
(dp6639
g725
g6638
sssS'189'
p6640
(dp6641
S'995'
p6642
(dp6643
g725
g6642
ssS'1768'
p6644
(dp6645
g725
g6644
sssS'109'
p6646
g6497
sS'168'
p6647
(dp6648
S'1612'
p6649
(dp6650
g725
g6649
sssS'70'
p6651
(dp6652
S'568'
p6653
(dp6654
g725
g6653
ssS'1004'
p6655
(dp6656
g725
g6655
sssS'165'
p6657
g1036
sS'93'
p6658
(dp6659
S'902'
p6660
(dp6661
g725
g6660
sssS'79'
p6662
(dp6663
S'1001'
p6664
(dp6665
g725
g6664
sssS'163'
p6666
g3230
sS'11'
p6667
(dp6668
S'65'
p6669
(dp6670
g725
g6669
sssS'50'
p6671
g4116
sS'35'
p6672
(dp6673
S'1006'
p6674
(dp6675
g725
g6674
ssssg323
(dp6676
S'80'
p6677
g5687
ssg326
(dp6678
S'22'
p6679
g2987
sS'88'
p6680
g5405
sS'50'
p6681
g4122
sg290
g6410
sS'136'
p6682
g2111
sS'185'
p6683
(dp6684
S'974'
p6685
(dp6686
g725
g6685
sssS'82'
p6687
g5550
sS'41'
p6688
(dp6689
S'975'
p6690
(dp6691
g725
g6690
ssS'266'
p6692
(dp6693
g725
g6692
sssS'223'
p6694
(dp6695
S'971'
p6696
(dp6697
g725
g6696
sssS'105'
p6698
(dp6699
S'988'
p6700
(dp6701
g725
g6700
ssssg329
(dp6702
S'154'
p6703
(dp6704
S'976'
p6705
(dp6706
g725
g6705
ssS'1522'
p6707
(dp6708
g725
g6707
sssS'115'
p6709
g5378
sS'63'
p6710
(dp6711
S'992'
p6712
(dp6713
g725
g6712
sssS'136'
p6714
g2117
sS'82'
p6715
g5554
sS'80'
p6716
g5693
sS'87'
p6717
g6086
sS'84'
p6718
g6247
sS'213'
p6719
g909
sS'175'
p6720
(dp6721
S'1697'
p6722
(dp6723
g725
g6722
sssS'45'
p6724
(dp6725
S'985'
p6726
(dp6727
g725
g6726
sssS'180'
p6728
(dp6729
S'989'
p6730
(dp6731
g725
g6730
sssg437
(dp6732
S'11'
p6733
(dp6734
g725
g6733
ssS'981'
p6735
(dp6736
g725
g6735
sssg644
(dp6737
S'37'
p6738
(dp6739
g725
g6738
sssS'109'
p6740
g6503
sS'70'
p6741
(dp6742
S'986'
p6743
(dp6744
g725
g6743
ssS'616'
p6745
(dp6746
g725
g6745
sssS'102'
p6747
g6540
sS'226'
p6748
g6397
sS'104'
p6749
g6699
sS'10'
p6750
(dp6751
S'50'
p6752
(dp6753
g725
g6752
sssS'55'
p6754
g3882
sS'50'
p6755
g4128
sS'35'
p6756
(dp6757
S'987'
p6758
(dp6759
g725
g6758
ssS'185'
p6760
(dp6761
g725
g6760
sssS'130'
p6762
g1473
ssg332
(dp6763
S'136'
p6764
g2123
sS'161'
p6765
g3072
ssg335
(dp6766
S'50'
p6767
g4134
sS'84'
p6768
g6317
sg449
(dp6769
S'214'
p6770
(dp6771
g725
g6770
ssS'28'
p6772
(dp6773
g725
g6772
ssssg338
(dp6774
S'136'
p6775
g2129
sS'50'
p6776
g4140
ssg341
(dp6777
S'88'
p6778
g5396
sS'50'
p6779
g4146
sS'221'
p6780
(dp6781
S'2060'
p6782
(dp6783
g725
g6782
ssssg344
(dp6784
S'50'
p6785
g4152
sS'41'
p6786
(dp6787
S'230'
p6788
(dp6789
g725
g6788
sssS'63'
p6790
(dp6791
S'174'
p6792
(dp6793
g725
g6792
sssS'136'
p6794
g2135
sS'128'
p6795
g3593
sS'221'
p6796
(dp6797
S'2058'
p6798
(dp6799
g725
g6798
ssssg347
(dp6800
S'11'
p6801
(dp6802
S'75'
p6803
(dp6804
g725
g6803
ssS'166'
p6805
(dp6806
g725
g6805
sssS'22'
p6807
g2944
sS'50'
p6808
g4158
sS'41'
p6809
(dp6810
S'268'
p6811
(dp6812
g725
g6811
ssS'171'
p6813
(dp6814
g725
g6813
sssS'61'
p6815
(dp6816
S'517'
p6817
(dp6818
g725
g6817
sssS'168'
p6819
(dp6820
S'169'
p6821
(dp6822
g725
g6821
sssS'136'
p6823
g2141
sS'186'
p6824
(dp6825
S'1755'
p6826
(dp6827
g725
g6826
sssS'87'
p6828
g6139
sS'171'
p6829
(dp6830
S'1643'
p6831
(dp6832
g725
g6831
sssS'169'
p6833
(dp6834
S'167'
p6835
(dp6836
g725
g6835
ssssg350
(dp6837
S'213'
p6838
g849
sS'157'
p6839
(dp6840
S'206'
p6841
(dp6842
g725
g6841
sssS'197'
p6843
g5020
sS'130'
p6844
g1479
sS'35'
p6845
(dp6846
S'194'
p6847
(dp6848
g725
g6847
sssS'80'
p6849
g5697
sS'119'
p6850
g3257
sS'87'
p6851
g6143
sS'84'
p6852
g6326
sS'154'
p6853
(dp6854
S'201'
p6855
(dp6856
g725
g6855
ssS'1503'
p6857
(dp6858
g725
g6857
sssS'181'
p6859
(dp6860
S'212'
p6861
(dp6862
g725
g6861
sssS'168'
p6863
(dp6864
S'1621'
p6865
(dp6866
g725
g6865
sssS'72'
p6867
(dp6868
S'646'
p6869
(dp6870
g725
g6869
sssS'70'
p6871
(dp6872
S'596'
p6873
(dp6874
g725
g6873
ssS'211'
p6875
(dp6876
g725
g6875
sssS'101'
p6877
g6589
sS'223'
p6878
(dp6879
S'2073'
p6880
(dp6881
g725
g6880
sssS'78'
p6882
(dp6883
S'209'
p6884
(dp6885
g725
g6884
sssS'55'
p6886
g3863
sS'18'
p6887
(dp6888
S'208'
p6889
(dp6890
g725
g6889
sssS'50'
p6891
g4164
sS'53'
p6892
g4530
sS'136'
p6893
g2147
ssg353
(dp6894
S'120'
p6895
g3330
sS'21'
p6896
g2914
sS'50'
p6897
g4170
sg638
(dp6898
g644
(dp6899
g725
g644
sssS'123'
p6900
g3415
sS'136'
p6901
g2153
sS'134'
p6902
g2614
sS'227'
p6903
(dp6904
S'2082'
p6905
(dp6906
g725
g6905
sssS'84'
p6907
g6330
ssg356
(dp6908
S'154'
p6909
(dp6910
S'1521'
p6911
(dp6912
g725
g6911
sssS'48'
p6913
(dp6914
S'339'
p6915
(dp6916
g725
g6915
sssS'165'
p6917
g1014
sS'125'
p6918
g3462
sS'37'
p6919
g6846
sS'50'
p6920
g4176
sS'41'
p6921
(dp6922
S'245'
p6923
(dp6924
g725
g6923
ssS'191'
p6925
(dp6926
g725
g6925
sssS'130'
p6927
g1485
sS'111'
p6928
g5430
sS'136'
p6929
g2159
sS'179'
p6930
g4612
sS'69'
p6931
(dp6932
S'190'
p6933
(dp6934
g725
g6933
sssS'103'
p6935
g6552
sS'80'
p6936
g5701
sS'233'
p6937
(dp6938
S'2098'
p6939
(dp6940
g725
g6939
sssS'106'
p6941
g6673
sS'84'
p6942
g6334
sS'105'
p6943
g6757
ssg359
(dp6944
S'154'
p6945
(dp6946
S'1478'
p6947
(dp6948
g725
g6947
ssS'179'
p6949
(dp6950
g725
g6949
sssS'45'
p6951
(dp6952
S'180'
p6953
(dp6954
g725
g6953
sssS'50'
p6955
g4182
sS'219'
p6956
g1136
sS'61'
p6957
(dp6958
S'181'
p6959
(dp6960
g725
g6959
sssS'130'
p6961
g1491
sS'136'
p6962
g2165
sS'80'
p6963
g5707
ssg362
(dp6964
S'154'
p6965
(dp6966
S'1486'
p6967
(dp6968
g725
g6967
ssS'1972'
p6969
(dp6970
g725
g6969
sssS'48'
p6971
(dp6972
S'325'
p6973
(dp6974
g725
g6973
sssS'175'
p6975
(dp6976
S'1977'
p6977
(dp6978
g725
g6977
sssS'50'
p6979
g4449
sS'41'
p6980
(dp6981
S'235'
p6982
(dp6983
g725
g6982
ssS'1979'
p6984
(dp6985
g725
g6984
sssS'130'
p6986
g1733
sS'136'
p6987
g2469
sS'70'
p6988
(dp6989
S'579'
p6990
(dp6991
g725
g6990
ssS'1982'
p6992
(dp6993
g725
g6992
sssS'82'
p6994
g5541
sS'69'
p6995
(dp6996
S'1978'
p6997
(dp6998
g725
g6997
sssS'80'
p6999
g5929
sS'173'
p7000
(dp7001
S'1980'
p7002
(dp7003
g725
g7002
sssS'87'
p7004
g6092
sS'84'
p7005
g6260
ssg365
(dp7006
S'10'
p7007
(dp7008
S'55'
p7009
(dp7010
g725
g7009
sssS'74'
p7011
(dp7012
S'2068'
p7013
(dp7014
g725
g7013
sssS'37'
p7015
g6879
sS'45'
p7016
(dp7017
S'2070'
p7018
(dp7019
g725
g7018
sssS'84'
p7020
g6155
sS'50'
p7021
g3953
sS'41'
p7022
(dp7023
S'251'
p7024
(dp7025
g725
g7024
sssS'130'
p7026
g1589
sS'136'
p7027
g2308
sS'70'
p7028
(dp7029
S'2071'
p7030
(dp7031
g725
g7030
ssS'617'
p7032
(dp7033
g725
g7032
sssS'80'
p7034
g5796
sS'192'
p7035
g5229
sS'104'
p7036
g6695
sg116
g3148
ssg368
(dp7037
S'146'
p7038
(dp7039
S'1444'
p7040
(dp7041
g725
g7040
sssS'200'
p7042
g4644
sS'138'
p7043
g2655
sS'172'
p7044
(dp7045
S'1653'
p7046
(dp7047
g725
g7046
sssS'154'
p7048
(dp7049
S'1508'
p7050
(dp7051
g725
g7050
ssS'1703'
p7052
(dp7053
g725
g7052
sssS'49'
p7054
(dp7055
S'352'
p7056
(dp7057
g725
g7056
sssS'159'
p7058
(dp7059
S'1711'
p7060
(dp7061
g725
g7060
sssS'175'
p7062
(dp7063
S'1708'
p7064
(dp7065
g725
g7064
ssS'1701'
p7066
(dp7067
g725
g7066
sssS'50'
p7068
g4206
sS'41'
p7069
(dp7070
S'1709'
p7071
(dp7072
g725
g7071
ssS'282'
p7073
(dp7074
g725
g7073
sssS'130'
p7075
g1515
sS'136'
p7076
g2009
sS'229'
p7077
(dp7078
S'2092'
p7079
(dp7080
g725
g7079
sssS'70'
p7081
(dp7082
S'1713'
p7083
(dp7084
g725
g7083
ssS'602'
p7085
(dp7086
g725
g7085
sssS'80'
p7087
g5715
sS'192'
p7088
g5154
sS'106'
p7089
g6619
sS'87'
p7090
g6042
ssg371
(dp7091
S'200'
p7092
g4841
sS'173'
p7093
(dp7094
S'1665'
p7095
(dp7096
g725
g7095
ssS'512'
p7097
(dp7098
g725
g7097
ssssg374
(dp7099
S'10'
p7100
(dp7101
S'53'
p7102
(dp7103
g725
g7102
sssS'145'
p7104
(dp7105
S'516'
p7106
(dp7107
g725
g7106
sssS'30'
p7108
g6816
sS'50'
p7109
g4188
sS'34'
p7110
g6958
sg638
(dp7111
g296
(dp7112
g725
g296
sssS'88'
p7113
g5401
sS'130'
p7114
g1497
sS'97'
p7115
(dp7116
S'520'
p7117
(dp7118
g725
g7117
ssS'927'
p7119
(dp7120
g725
g7119
sssS'70'
p7121
(dp7122
S'515'
p7123
(dp7124
g725
g7123
sssS'41'
p7125
(dp7126
S'521'
p7127
(dp7128
g725
g7127
sssS'84'
p7129
g6184
ssg377
(dp7130
S'136'
p7131
g2171
sS'40'
p7132
(dp7133
S'523'
p7134
(dp7135
g725
g7134
ssS'219'
p7136
(dp7137
g725
g7136
ssssg380
(dp7138
S'24'
p7139
g2712
sS'200'
p7140
g4872
sS'31'
p7141
g6791
sS'192'
p7142
g5167
sS'136'
p7143
g2177
sS'105'
p7144
g6711
ssg383
(dp7145
S'124'
p7146
g3442
sS'136'
p7147
g2183
ssg386
(dp7148
S'200'
p7149
g4669
sS'27'
p7150
g2853
sS'154'
p7151
(dp7152
S'532'
p7153
(dp7154
g725
g7153
ssS'1504'
p7155
(dp7156
g725
g7155
sssS'48'
p7157
(dp7158
S'329'
p7159
(dp7160
g725
g7159
ssS'538'
p7161
(dp7162
g725
g7161
sssS'206'
p7163
g6381
sS'50'
p7164
g4194
sS'130'
p7165
g1503
sS'136'
p7166
g2189
sS'70'
p7167
(dp7168
S'534'
p7169
(dp7170
g725
g7169
ssS'597'
p7171
(dp7172
g725
g7171
sssS'68'
p7173
(dp7174
S'547'
p7175
(dp7176
g725
g7175
sssS'173'
p7177
(dp7178
S'1683'
p7179
(dp7180
g725
g7179
sssS'87'
p7181
g6036
sS'84'
p7182
g6190
ssg389
(dp7183
S'200'
p7184
g4675
sS'118'
p7185
g3702
sS'192'
p7186
g5180
ssg392
(dp7187
S'80'
p7188
g5635
ssg395
(dp7189
S'11'
p7190
(dp7191
S'68'
p7192
(dp7193
g725
g7192
sssS'200'
p7194
g4687
sS'17'
p7195
(dp7196
S'89'
p7197
(dp7198
g725
g7197
ssS'551'
p7199
(dp7200
g725
g7199
sssS'50'
p7201
g4200
sS'192'
p7202
g5161
sS'65'
p7203
g7174
sS'106'
p7204
g6615
sS'97'
p7205
(dp7206
S'930'
p7207
(dp7208
g725
g7207
sssS'136'
p7209
g2195
ssg398
(dp7210
S'154'
p7211
(dp7212
S'1490'
p7213
(dp7214
g725
g7213
ssS'553'
p7215
(dp7216
g725
g7215
sssS'195'
p7217
g4923
sS'130'
p7218
g1417
sS'136'
p7219
g2201
sS'80'
p7220
g5651
sS'173'
p7221
(dp7222
S'1689'
p7223
(dp7224
g725
g7223
sssS'87'
p7225
g6048
sS'84'
p7226
g6198
sS'213'
p7227
g889
sS'25'
p7228
g2777
sS'119'
p7229
g3281
sS'41'
p7230
(dp7231
S'562'
p7232
(dp7233
g725
g7232
ssS'243'
p7234
(dp7235
g725
g7234
sssS'200'
p7236
g4736
sS'203'
p7237
(dp7238
S'564'
p7239
(dp7240
g725
g7239
sssS'205'
p7241
g6996
sS'168'
p7242
(dp7243
S'558'
p7244
(dp7245
g725
g7244
sssS'125'
p7246
g3475
sS'70'
p7247
(dp7248
S'584'
p7249
(dp7250
g725
g7249
sssS'92'
p7251
(dp7252
S'560'
p7253
(dp7254
g725
g7253
sssS'55'
p7255
g3868
sS'50'
p7256
g3983
sS'35'
p7257
g6932
ssg401
(dp7258
S'205'
p7259
g6976
sS'50'
p7260
g4212
sS'130'
p7261
g1521
sg437
(dp7262
S'1699'
p7263
(dp7264
g725
g7263
sssS'136'
p7265
g2207
sS'112'
p7266
g5503
sS'176'
p7267
g7063
sS'105'
p7268
g6721
ssg404
(dp7269
S'24'
p7270
g2725
sS'200'
p7271
g4703
ssg407
(dp7272
S'216'
p7273
g729
sS'154'
p7274
(dp7275
S'1663'
p7276
(dp7277
g725
g7276
ssS'1538'
p7278
(dp7279
g725
g7278
sssS'195'
p7280
g4939
sS'158'
p7281
(dp7282
S'1553'
p7283
(dp7284
g725
g7283
ssS'1672'
p7285
(dp7286
g725
g7285
sssS'70'
p7287
(dp7288
S'633'
p7289
(dp7290
g725
g7289
ssS'1673'
p7291
(dp7292
g725
g7291
sssS'191'
p7293
g5075
sS'192'
p7294
g5205
sS'60'
p7295
g7094
sS'177'
p7296
g6415
sS'136'
p7297
g2213
sS'135'
p7298
g2569
sS'82'
p7299
g5546
sS'69'
p7300
g7222
sS'80'
p7301
g5721
sS'118'
p7302
g3715
sS'24'
p7303
g2731
sS'48'
p7304
(dp7305
S'334'
p7306
(dp7307
g725
g7306
ssS'1666'
p7308
(dp7309
g725
g7308
sssS'23'
p7310
g2998
sS'41'
p7311
(dp7312
S'283'
p7313
(dp7314
g725
g7313
ssS'1669'
p7315
(dp7316
g725
g7315
sssS'183'
p7317
(dp7318
S'1739'
p7319
(dp7320
g725
g7319
ssS'1686'
p7321
(dp7322
g725
g7321
sssS'187'
p7323
(dp7324
S'1677'
p7325
(dp7326
g725
g7325
ssS'1758'
p7327
(dp7328
g725
g7327
sssg296
g6425
sS'194'
p7329
g4997
sS'188'
p7330
(dp7331
S'1760'
p7332
(dp7333
g725
g7332
ssS'1684'
p7334
(dp7335
g725
g7334
sssS'189'
p7336
(dp7337
S'1775'
p7338
(dp7339
g725
g7338
sssS'200'
p7340
g4709
sS'203'
p7341
(dp7342
S'1960'
p7343
(dp7344
g725
g7343
sssS'205'
p7345
g7001
sS'206'
p7346
g6389
sS'108'
p7347
g6439
sS'127'
p7348
g3512
sS'103'
p7349
g6575
sS'167'
p7350
g3656
sS'160'
p7351
g3023
sS'162'
p7352
(dp7353
S'1569'
p7354
(dp7355
g725
g7354
ssS'1682'
p7356
(dp7357
g725
g7356
sssS'65'
p7358
g7178
ssg410
(dp7359
S'154'
p7360
(dp7361
S'1649'
p7362
(dp7363
g725
g7362
sssS'190'
p7364
g5100
sS'192'
p7365
g5241
sS'130'
p7366
g1527
sS'136'
p7367
g2219
sS'176'
p7368
g7045
sS'80'
p7369
g5727
sS'86'
p7370
g6016
sS'85'
p7371
g6348
sS'41'
p7372
(dp7373
S'1654'
p7374
(dp7375
g725
g7374
ssS'232'
p7376
(dp7377
g725
g7376
sssS'207'
p7378
(dp7379
S'1661'
p7380
(dp7381
g725
g7380
sssS'208'
p7382
(dp7383
S'1662'
p7384
(dp7385
g725
g7384
sssS'120'
p7386
g3355
sS'109'
p7387
g6484
sS'70'
p7388
(dp7389
S'609'
p7390
(dp7391
g725
g7390
sssS'102'
p7392
g6536
sS'96'
p7393
(dp7394
S'1650'
p7395
(dp7396
g725
g7395
sssS'12'
p7397
(dp7398
S'1656'
p7399
(dp7400
g725
g7399
sssS'14'
p7401
(dp7402
S'82'
p7403
(dp7404
g725
g7403
sssS'55'
p7405
g3878
sS'50'
p7406
g4218
sS'53'
p7407
g4553
sS'74'
p7408
(dp7409
S'649'
p7410
(dp7411
g725
g7410
ssssg413
(dp7412
S'30'
p7413
g6830
sS'154'
p7414
(dp7415
S'1489'
p7416
(dp7417
g725
g7416
ssS'1636'
p7418
(dp7419
g725
g7418
sssS'49'
p7420
(dp7421
S'1635'
p7422
(dp7423
g725
g7422
sssS'19'
p7424
(dp7425
S'1634'
p7426
(dp7427
g725
g7426
sssS'44'
p7428
(dp7429
S'1638'
p7430
(dp7431
g725
g7430
sssS'70'
p7432
(dp7433
S'582'
p7434
(dp7435
g725
g7434
ssS'1642'
p7436
(dp7437
g725
g7436
sssS'190'
p7438
g5084
sS'50'
p7439
g4224
sS'41'
p7440
(dp7441
S'240'
p7442
(dp7443
g725
g7442
ssS'1640'
p7444
(dp7445
g725
g7444
sssS'182'
p7446
(dp7447
S'1736'
p7448
(dp7449
g725
g7448
sssS'180'
p7450
(dp7451
S'1728'
p7452
(dp7453
g725
g7452
sssS'130'
p7454
g1533
sS'137'
p7455
g1786
sS'136'
p7456
g2225
sS'134'
p7457
g2580
sS'80'
p7458
g5731
sS'219'
p7459
g1140
sS'86'
p7460
g6004
ssg416
(dp7461
S'225'
p7462
g6432
sS'136'
p7463
g2231
ssg419
(dp7464
S'200'
p7465
g4775
sS'27'
p7466
g2814
sS'154'
p7467
(dp7468
S'1539'
p7469
(dp7470
g725
g7469
ssS'1952'
p7471
(dp7472
g725
g7471
sssS'10'
p7473
(dp7474
S'1957'
p7475
(dp7476
g725
g7475
sssS'189'
p7477
(dp7478
S'1954'
p7479
(dp7480
g725
g7479
sssS'130'
p7481
g1721
sS'50'
p7482
g4443
sS'41'
p7483
(dp7484
S'1959'
p7485
(dp7486
g725
g7485
ssS'285'
p7487
(dp7488
g725
g7487
sssS'115'
p7489
g5341
sS'109'
p7490
g6490
sS'168'
p7491
(dp7492
S'1958'
p7493
(dp7494
g725
g7493
sssS'136'
p7495
g2457
sS'70'
p7496
(dp7497
S'635'
p7498
(dp7499
g725
g7498
ssS'1962'
p7500
(dp7501
g725
g7500
sssS'69'
p7502
g7238
sS'80'
p7503
g5925
sS'192'
p7504
g5269
sS'173'
p7505
g7342
sS'84'
p7506
g6254
ssg422
(dp7507
S'200'
p7508
g4829
ssg425
(dp7509
S'37'
p7510
g6860
sS'50'
p7511
g4075
sS'192'
p7512
g5253
sS'75'
p7513
(dp7514
S'657'
p7515
(dp7516
g725
g7515
sssS'136'
p7517
g2075
sS'93'
p7518
(dp7519
S'1732'
p7520
(dp7521
g725
g7520
sssS'84'
p7522
g6220
ssg428
(dp7523
S'49'
p7524
(dp7525
S'342'
p7526
(dp7527
g725
g7526
sssS'50'
p7528
g4230
sS'122'
p7529
g3385
sS'130'
p7530
g1539
sS'70'
p7531
(dp7532
S'1734'
p7533
(dp7534
g725
g7533
sssS'128'
p7535
g3609
sS'171'
p7536
g7447
ssg431
(dp7537
S'200'
p7538
g4747
sS'192'
p7539
g5247
sS'70'
p7540
(dp7541
S'1740'
p7542
(dp7543
g725
g7542
ssS'581'
p7544
(dp7545
g725
g7544
sssS'80'
p7546
g5737
sS'173'
p7547
g7318
sS'118'
p7548
g3738
ssg434
(dp7549
S'59'
p7550
g3827
sS'45'
p7551
(dp7552
S'317'
p7553
(dp7554
g725
g7553
sssS'130'
p7555
g1545
sS'169'
p7556
(dp7557
S'1724'
p7558
(dp7559
g725
g7558
sssS'70'
p7560
(dp7561
S'1725'
p7562
(dp7563
g725
g7562
sssS'80'
p7564
g5741
sS'171'
p7565
g7451
sS'105'
p7566
g6729
ssg437
(dp7567
S'152'
p7568
(dp7569
S'14'
p7570
(dp7571
g725
g7570
sssS'154'
p7572
(dp7573
S'1537'
p7574
(dp7575
g725
g7574
ssS'12'
p7576
(dp7577
g725
g7576
sssS'50'
p7578
g4235
sS'41'
p7579
(dp7580
S'280'
p7581
(dp7582
g725
g7581
ssS'16'
p7583
(dp7584
g725
g7583
sssS'120'
p7585
g3341
sS'136'
p7586
g2236
sS'80'
p7587
g5746
sS'175'
p7588
g7262
sS'84'
p7589
g6232
sS'105'
p7590
g6732
ssg440
(dp7591
S'200'
p7592
g4835
sS'80'
p7593
g5802
sS'192'
p7594
g5310
sS'173'
p7595
g7353
sS'70'
p7596
(dp7597
S'611'
p7598
(dp7599
g725
g7598
ssS'1570'
p7600
(dp7601
g725
g7600
ssssg443
(dp7602
S'200'
p7603
g4753
sS'173'
p7604
g7324
ssg446
(dp7605
S'18'
p7606
(dp7607
S'1744'
p7608
(dp7609
g725
g7608
ssS'92'
p7610
(dp7611
g725
g7610
ssssg449
(dp7612
S'38'
p7613
g6769
sS'50'
p7614
g4246
ssg452
(dp7615
S'50'
p7616
g4332
ssg455
(dp7617
S'80'
p7618
g5752
sS'30'
p7619
g6825
sS'50'
p7620
g4241
sS'204'
p7621
(dp7622
S'1967'
p7623
(dp7624
g725
g7623
ssssg458
(dp7625
S'200'
p7626
g4759
sS'173'
p7627
g7331
sS'118'
p7628
g3750
ssg461
(dp7629
S'154'
p7630
(dp7631
S'1764'
p7632
(dp7633
g725
g7632
ssS'1505'
p7634
(dp7635
g725
g7634
sssS'194'
p7636
g4954
sS'70'
p7637
(dp7638
S'599'
p7639
(dp7640
g725
g7639
ssS'1779'
p7641
(dp7642
g725
g7641
sssS'192'
p7643
g5262
sS'130'
p7644
g1557
sS'136'
p7645
g2248
sS'134'
p7646
g2634
sS'80'
p7647
g5762
sS'173'
p7648
g7337
sS'118'
p7649
g3756
sS'84'
p7650
g6174
sS'24'
p7651
g2684
sS'20'
p7652
g2889
sS'21'
p7653
g2927
sS'49'
p7654
(dp7655
S'348'
p7656
(dp7657
g725
g7656
ssS'1765'
p7658
(dp7659
g725
g7658
sssS'45'
p7660
(dp7661
S'309'
p7662
(dp7663
g725
g7662
ssS'1777'
p7664
(dp7665
g725
g7664
sssS'41'
p7666
(dp7667
S'278'
p7668
(dp7669
g725
g7668
ssS'1774'
p7670
(dp7671
g725
g7670
sssS'87'
p7672
g6133
sS'200'
p7673
g4765
sS'203'
p7674
g7478
sS'127'
p7675
g3498
sS'106'
p7676
g6641
sS'10'
p7677
(dp7678
S'1772'
p7679
(dp7680
g725
g7679
sssS'50'
p7681
g4252
sS'53'
p7682
g4549
ssg464
(dp7683
S'147'
p7684
(dp7685
S'1949'
p7686
(dp7687
g725
g7686
sssS'136'
p7688
g2463
sS'79'
p7689
(dp7690
S'1950'
p7691
(dp7692
g725
g7691
ssssg467
(dp7693
S'118'
p7694
g3681
ssg470
(dp7695
S'32'
p7696
g6781
sS'31'
p7697
g6797
sS'199'
p7698
g4601
sS'50'
p7699
g4313
sS'41'
p7700
(dp7701
S'2061'
p7702
(dp7703
g725
g7702
ssssg473
(dp7704
S'212'
p7705
g824
sS'154'
p7706
(dp7707
S'1535'
p7708
(dp7709
g725
g7708
ssS'1746'
p7710
(dp7711
g725
g7710
sssS'50'
p7712
g4258
sS'41'
p7713
(dp7714
S'270'
p7715
(dp7716
g725
g7715
ssS'1754'
p7717
(dp7718
g725
g7717
sssS'130'
p7719
g1551
sS'114'
p7720
g5383
sS'74'
p7721
(dp7722
S'651'
p7723
(dp7724
g725
g7723
sssS'104'
p7725
g6684
sS'164'
p7726
g4580
sS'80'
p7727
g5756
sS'86'
p7728
g5986
sS'93'
p7729
(dp7730
S'904'
p7731
(dp7732
g725
g7731
sssS'84'
p7733
g6236
sS'136'
p7734
g2242
ssg476
(dp7735
S'26'
p7736
g2800
sS'136'
p7737
g2254
sS'140'
p7738
(dp7739
S'944'
p7740
(dp7741
g725
g7740
ssS'1431'
p7742
(dp7743
g725
g7742
ssssg479
(dp7744
S'72'
p7745
(dp7746
S'940'
p7747
(dp7748
g725
g7747
sssS'27'
p7749
g2834
sS'154'
p7750
(dp7751
S'1512'
p7752
(dp7753
g725
g7752
ssS'934'
p7754
(dp7755
g725
g7754
sssS'50'
p7756
g4264
sS'41'
p7757
(dp7758
S'287'
p7759
(dp7760
g725
g7759
ssS'941'
p7761
(dp7762
g725
g7761
sssS'12'
p7763
(dp7764
S'936'
p7765
(dp7766
g725
g7765
sssS'136'
p7767
g2260
sS'80'
p7768
g5768
sS'93'
p7769
(dp7770
S'939'
p7771
(dp7772
g725
g7771
sssS'84'
p7773
g6276
sS'96'
p7774
(dp7775
S'922'
p7776
(dp7777
g725
g7776
ssssg482
(dp7778
S'159'
p7779
(dp7780
S'1559'
p7781
(dp7782
g725
g7781
sssS'192'
p7783
g5288
sS'130'
p7784
g1563
sS'111'
p7785
g5445
sS'136'
p7786
g2266
sS'69'
p7787
g7243
sS'80'
p7788
g5774
sS'87'
p7789
g6104
sS'84'
p7790
g6292
sS'48'
p7791
(dp7792
S'1613'
p7793
(dp7794
g725
g7793
sssS'41'
p7795
(dp7796
S'1617'
p7797
(dp7798
g725
g7797
ssS'241'
p7799
(dp7800
g725
g7799
sssS'195'
p7801
g4908
sg116
g3131
sS'203'
p7802
g7492
sS'70'
p7803
(dp7804
S'583'
p7805
(dp7806
g725
g7805
ssS'1619'
p7807
(dp7808
g725
g7807
sssS'128'
p7809
g3622
sS'103'
p7810
g6557
sS'106'
p7811
g6648
sS'96'
p7812
(dp7813
S'1611'
p7814
(dp7815
g725
g7814
sssS'30'
p7816
g6820
sS'37'
p7817
g6864
sS'50'
p7818
g4270
ssg485
(dp7819
S'154'
p7820
(dp7821
S'1494'
p7822
(dp7823
g725
g7822
ssS'1625'
p7824
(dp7825
g725
g7824
sssS'207'
p7826
(dp7827
S'1630'
p7828
(dp7829
g725
g7828
ssS'1993'
p7830
(dp7831
g725
g7830
sssS'49'
p7832
(dp7833
S'1624'
p7834
(dp7835
g725
g7834
sssS'159'
p7836
(dp7837
S'1623'
p7838
(dp7839
g725
g7838
sssS'30'
p7840
g6834
sS'50'
p7841
g4276
sS'41'
p7842
(dp7843
S'1631'
p7844
(dp7845
g725
g7844
ssS'250'
p7846
(dp7847
g725
g7846
sssS'180'
p7848
g7557
sS'130'
p7849
g1569
sS'136'
p7850
g2272
sS'70'
p7851
(dp7852
S'1626'
p7853
(dp7854
g725
g7853
sssS'80'
p7855
g5780
ssg488
(dp7856
S'77'
p7857
(dp7858
S'2091'
p7859
(dp7860
g725
g7859
sssS'152'
p7861
(dp7862
S'1461'
p7863
(dp7864
g725
g7863
sssS'154'
p7865
(dp7866
S'2087'
p7867
(dp7868
g725
g7867
ssS'1523'
p7869
(dp7870
g725
g7869
sssS'50'
p7871
g4282
sS'41'
p7872
(dp7873
S'2093'
p7874
(dp7875
g725
g7874
sssS'120'
p7876
g3335
sS'130'
p7877
g1575
sS'136'
p7878
g2278
sS'70'
p7879
(dp7880
S'618'
p7881
(dp7882
g725
g7881
ssS'2088'
p7883
(dp7884
g725
g7883
sssS'82'
p7885
g5532
sS'176'
p7886
g7078
sS'80'
p7887
g5786
ssg491
(dp7888
S'130'
p7889
g1581
sS'50'
p7890
g4288
sS'219'
p7891
g1090
ssg494
(dp7892
S'132'
p7893
g1223
sS'80'
p7894
g5619
sS'213'
p7895
g883
ssg497
(dp7896
S'200'
p7897
g4821
sS'45'
p7898
(dp7899
S'890'
p7900
(dp7901
g725
g7900
sssS'192'
p7902
g5333
sS'75'
p7903
(dp7904
S'892'
p7905
(dp7906
g725
g7905
sssS'136'
p7907
g2290
sS'83'
p7908
g5566
sS'87'
p7909
g6116
ssg500
(dp7910
S'157'
p7911
(dp7912
S'901'
p7913
(dp7914
g725
g7913
sssS'50'
p7915
g4301
sS'98'
p7916
g7770
sS'181'
p7917
g7519
sS'111'
p7918
g5465
sS'136'
p7919
g2296
sS'185'
p7920
g7730
sS'224'
p7921
(dp7922
S'2075'
p7923
(dp7924
g725
g7923
sssS'106'
p7925
g6659
sS'72'
p7926
(dp7927
S'645'
p7928
(dp7929
g725
g7928
ssssg503
(dp7930
S'120'
p7931
g3300
sS'130'
p7932
g1585
sS'136'
p7933
g2302
sS'69'
p7934
g7252
sS'80'
p7935
g5792
sS'87'
p7936
g6120
ssg506
(dp7937
S'152'
p7938
(dp7939
S'1465'
p7940
(dp7941
g725
g7940
sssS'154'
p7942
(dp7943
S'1479'
p7944
(dp7945
g725
g7944
ssS'907'
p7946
(dp7947
g725
g7946
sssS'49'
p7948
(dp7949
S'908'
p7950
(dp7951
g725
g7950
sssS'44'
p7952
(dp7953
S'300'
p7954
(dp7955
g725
g7954
ssS'910'
p7956
(dp7957
g725
g7956
sssS'50'
p7958
g4307
sS'41'
p7959
(dp7960
S'226'
p7961
(dp7962
g725
g7961
ssS'912'
p7963
(dp7964
g725
g7963
sssS'80'
p7965
g5593
sS'119'
p7966
g3291
ssg509
(dp7967
S'18'
p7968
(dp7969
S'98'
p7970
(dp7971
g725
g7970
ssS'906'
p7972
(dp7973
g725
g7972
ssssg512
(dp7974
S'59'
p7975
g3832
sS'154'
p7976
(dp7977
S'1526'
p7978
(dp7979
g725
g7978
ssS'925'
p7980
(dp7981
g725
g7980
sssS'134'
p7982
g2638
sS'50'
p7983
g3960
sS'41'
p7984
(dp7985
S'932'
p7986
(dp7987
g725
g7986
ssS'258'
p7988
(dp7989
g725
g7988
sssS'61'
p7990
g7116
sS'130'
p7991
g1593
sS'111'
p7992
g5449
sS'136'
p7993
g2320
sS'135'
p7994
g2575
sS'70'
p7995
(dp7996
S'928'
p7997
(dp7998
g725
g7997
ssS'621'
p7999
(dp8000
g725
g7999
sssS'68'
p8001
g7206
sS'87'
p8002
g6124
ssg515
(dp8003
S'11'
p8004
(dp8005
S'64'
p8006
(dp8007
g725
g8006
ssS'913'
p8008
(dp8009
g725
g8008
sssS'27'
p8010
g2843
sS'50'
p8011
g3966
sS'149'
p8012
(dp8013
S'920'
p8014
(dp8015
g725
g8014
sssS'120'
p8016
g3351
sS'98'
p8017
g7775
sS'130'
p8018
g1321
sS'168'
p8019
g7813
sS'70'
p8020
(dp8021
S'630'
p8022
(dp8023
g725
g8022
ssS'917'
p8024
(dp8025
g725
g8024
sssS'80'
p8026
g5600
sS'106'
p8027
g6634
sS'172'
p8028
g7394
sS'84'
p8029
g6216
ssg518
(dp8030
S'154'
p8031
(dp8032
S'1475'
p8033
(dp8034
g725
g8033
sssS'48'
p8035
(dp8036
S'326'
p8037
(dp8038
g725
g8037
ssS'67'
p8039
(dp8040
g725
g8039
sssS'19'
p8041
(dp8042
S'101'
p8043
(dp8044
g725
g8043
sssS'43'
p8045
(dp8046
S'291'
p8047
(dp8048
g725
g8047
sssS'30'
p8049
g6802
sS'191'
p8050
g5045
sS'50'
p8051
g4320
sS'78'
p8052
(dp8053
S'72'
p8054
(dp8055
g725
g8054
sssS'192'
p8056
g5317
sS'130'
p8057
g1605
sS'136'
p8058
g2332
sS'70'
p8059
(dp8060
S'74'
p8061
(dp8062
g725
g8061
ssS'566'
p8063
(dp8064
g725
g8063
sssS'68'
p8065
g7191
sS'80'
p8066
g5809
sS'41'
p8067
(dp8068
S'222'
p8069
(dp8070
g725
g8069
ssS'70'
p8071
(dp8072
g725
g8071
sssS'106'
p8073
g6668
sS'84'
p8074
g6310
sS'96'
p8075
g8005
ssg521
(dp8076
S'25'
p8077
g2744
sS'203'
p8078
g7474
sS'208'
p8079
(dp8080
S'2000'
p8081
(dp8082
g725
g8081
sssS'50'
p8083
g4326
sS'41'
p8084
(dp8085
S'61'
p8086
(dp8087
g725
g8086
ssS'257'
p8088
(dp8089
g725
g8088
sssS'133'
p8090
g1151
sS'61'
p8091
g7101
sS'130'
p8092
g1611
sS'136'
p8093
g2338
sS'135'
p8094
g2542
sS'70'
p8095
(dp8096
S'54'
p8097
(dp8098
g725
g8097
sssg119
g3153
sS'80'
p8099
g5813
sS'189'
p8100
g7678
sS'223'
p8101
g7008
sS'87'
p8102
g6129
sS'105'
p8103
g6751
ssg524
(dp8104
S'130'
p8105
g1617
sS'145'
p8106
(dp8107
S'1439'
p8108
(dp8109
g725
g8108
sssS'81'
p8110
g5974
sS'110'
p8111
g5480
sS'179'
p8112
g4608
ssg527
(dp8113
S'98'
p8114
g7764
sS'172'
p8115
g7398
sS'50'
p8116
g4338
sS'204'
p8117
(dp8118
S'77'
p8119
(dp8120
g725
g8119
ssssg530
(dp8121
S'200'
p8122
g4847
ssg533
(dp8123
S'159'
p8124
(dp8125
S'81'
p8126
(dp8127
g725
g8126
sssS'120'
p8128
g3304
sS'130'
p8129
g1623
sS'128'
p8130
g3644
sS'80'
p8131
g5819
sS'172'
p8132
g7402
ssg536
(dp8133
S'68'
p8134
g7196
sS'200'
p8135
g4853
ssg539
(dp8136
S'136'
p8137
g2344
ssg542
(dp8138
S'11'
p8139
g8042
sS'59'
p8140
g3812
sS'154'
p8141
(dp8142
S'102'
p8143
(dp8144
g725
g8143
ssS'1488'
p8145
(dp8146
g725
g8145
sssS'70'
p8147
(dp8148
S'580'
p8149
(dp8150
g725
g8149
sssS'50'
p8151
g4344
sS'41'
p8152
(dp8153
S'236'
p8154
(dp8155
g725
g8154
ssS'107'
p8156
(dp8157
g725
g8156
sssS'130'
p8158
g1629
sS'171'
p8159
g7425
sS'112'
p8160
g5499
sS'80'
p8161
g5825
sS'84'
p8162
g6322
ssg545
(dp8163
S'37'
p8164
g6888
sS'200'
p8165
g4859
sS'144'
p8166
(dp8167
S'93'
p8168
(dp8169
g725
g8168
ssS'1438'
p8170
(dp8171
g725
g8170
sssS'143'
p8172
(dp8173
S'1437'
p8174
(dp8175
g725
g8174
ssS'100'
p8176
(dp8177
g725
g8176
sssS'47'
p8178
(dp8179
S'323'
p8180
(dp8181
g725
g8180
ssS'95'
p8182
(dp8183
g725
g8182
sssS'42'
p8184
(dp8185
S'289'
p8186
(dp8187
g725
g8186
ssS'94'
p8188
(dp8189
g725
g8188
sssS'192'
p8190
g5324
sS'130'
p8191
g1635
sS'89'
p8192
g5410
sS'136'
p8193
g2350
sS'184'
p8194
g7607
sS'80'
p8195
g5831
sS'94'
p8196
g7969
ssg548
(dp8197
g113
g3102
sS'80'
p8198
g5645
ssg551
(dp8199
S'200'
p8200
g4662
ssg554
(dp8201
S'12'
p8202
g8118
sS'57'
p8203
g3899
sS'50'
p8204
g4455
sS'41'
p8205
(dp8206
S'272'
p8207
(dp8208
g725
g8207
ssS'1971'
p8209
(dp8210
g725
g8209
sssS'88'
p8211
g5392
sS'186'
p8212
g7622
sS'136'
p8213
g2475
sS'80'
p8214
g5935
ssg557
(dp8215
S'50'
p8216
g4350
sS'136'
p8217
g2356
ssg560
(dp8218
S'215'
p8219
g785
sS'50'
p8220
g4356
sS'84'
p8221
g6151
ssg563
(dp8222
S'136'
p8223
g2362
ssg566
(dp8224
S'198'
p8225
g6353
sg638
(dp8226
S'1459'
p8227
(dp8228
g725
g8227
sssS'212'
p8229
g804
sS'154'
p8230
(dp8231
S'1498'
p8232
(dp8233
g725
g8232
ssS'1457'
p8234
(dp8235
g725
g8234
sssS'82'
p8236
g5515
sS'50'
p8237
g4362
sS'53'
p8238
g4516
sS'41'
p8239
(dp8240
S'1466'
p8241
(dp8242
g725
g8241
ssS'255'
p8243
(dp8244
g725
g8243
sssS'130'
p8245
g1639
sS'102'
p8246
g6510
sg437
g7569
sS'136'
p8247
g2368
sS'229'
p8248
g7862
sS'70'
p8249
(dp8250
S'590'
p8251
(dp8252
g725
g8251
ssS'1469'
p8253
(dp8254
g725
g8253
sssg644
(dp8255
S'43'
p8256
(dp8257
g725
g8256
sssS'80'
p8258
g5835
sS'192'
p8259
g5139
sS'95'
p8260
g7939
sS'84'
p8261
g6159
sS'85'
p8262
g6343
ssg569
(dp8263
S'80'
p8264
g5841
ssg572
(dp8265
S'152'
p8266
g8231
sS'172'
p8267
g7361
sS'213'
p8268
g843
sS'210'
p8269
g914
sS'200'
p8270
g4722
sS'165'
p8271
g1002
sS'194'
p8272
g4958
sS'197'
p8273
g5008
sS'127'
p8274
g3502
sS'176'
p8275
g7049
sS'178'
p8276
g5038
sS'218'
p8277
g1055
sS'192'
p8278
g5216
sS'132'
p8279
g1176
sS'130'
p8280
g1645
sS'111'
p8281
g5473
sS'65'
p8282
g7152
sS'135'
p8283
g2536
sS'134'
p8284
g2584
sS'69'
p8285
g7212
sS'80'
p8286
g5847
sS'119'
p8287
g3249
sS'87'
p8288
g6062
sS'84'
p8289
g6165
sS'198'
p8290
g6359
sS'25'
p8291
g2748
sS'171'
p8292
g7415
sS'27'
p8293
g2818
sS'20'
p8294
g2859
sS'157'
p8295
(dp8296
S'1547'
p8297
(dp8298
g725
g8297
sssS'48'
p8299
(dp8300
S'327'
p8301
(dp8302
g725
g8301
ssS'1496'
p8303
(dp8304
g725
g8303
sssS'106'
p8305
g6605
sS'44'
p8306
(dp8307
S'1524'
p8308
(dp8309
g725
g8308
ssS'295'
p8310
(dp8311
g725
g8310
sssS'211'
p8312
g963
sS'28'
p8313
g3036
sS'43'
p8314
(dp8315
S'292'
p8316
(dp8317
g725
g8316
sssS'193'
p8318
g5110
sS'41'
p8319
(dp8320
S'1515'
p8321
(dp8322
g725
g8321
ssS'221'
p8323
(dp8324
g725
g8323
sssg113
g3080
sg437
g7573
sg116
g3118
sS'185'
p8325
g7707
sg644
(dp8326
S'38'
p8327
(dp8328
g725
g8327
ssS'1518'
p8329
(dp8330
g725
g8329
sssg119
g3157
sS'163'
p8331
g3180
sS'11'
p8332
g8032
sS'203'
p8333
g7468
sS'205'
p8334
g6966
sS'77'
p8335
(dp8336
S'666'
p8337
(dp8338
g725
g8337
ssS'1511'
p8339
(dp8340
g725
g8339
sssS'98'
p8341
g7751
sS'75'
p8342
(dp8343
S'1514'
p8344
(dp8345
g725
g8344
ssS'653'
p8346
(dp8347
g725
g8346
sssS'123'
p8348
g3399
sS'169'
p8349
g7821
sS'229'
p8350
g7866
sS'70'
p8351
(dp8352
S'605'
p8353
(dp8354
g725
g8353
ssS'1483'
p8355
(dp8356
g725
g8355
sssS'128'
p8357
g3579
sS'103'
p8358
g6546
sS'219'
p8359
g1086
sS'95'
p8360
g7943
sS'97'
p8361
g7977
sS'105'
p8362
g6704
sS'118'
p8363
g3663
sS'120'
p8364
g3363
sS'189'
p8365
g7631
sS'59'
p8366
g3806
sS'22'
p8367
g2934
sS'173'
p8368
g7275
sS'19'
p8369
g8142
sS'37'
p8370
g6854
sS'50'
p8371
g4368
sS'35'
p8372
g6910
sS'34'
p8373
g6946
sS'195'
p8374
g4887
sS'136'
p8375
g2374
ssg575
(dp8376
S'154'
p8377
g8296
sS'49'
p8378
(dp8379
S'344'
p8380
(dp8381
g725
g8380
sssS'37'
p8382
g6840
sS'50'
p8383
g4374
sS'53'
p8384
g4520
sS'41'
p8385
(dp8386
S'1552'
p8387
(dp8388
g725
g8387
ssS'231'
p8389
(dp8390
g725
g8389
sssS'136'
p8391
g2380
sS'70'
p8392
(dp8393
S'1549'
p8394
(dp8395
g725
g8394
ssS'574'
p8396
(dp8397
g725
g8396
sssS'82'
p8398
g5520
sS'80'
p8399
g5853
sS'93'
p8400
g7912
ssg578
(dp8401
S'24'
p8402
g2718
sS'200'
p8403
g4625
ssg581
(dp8404
S'14'
p8405
g8125
sS'169'
p8406
g7837
sS'50'
p8407
g4380
sS'130'
p8408
g1651
sS'168'
p8409
g7780
sS'136'
p8410
g2386
sS'70'
p8411
(dp8412
S'593'
p8413
(dp8414
g725
g8413
ssS'1556'
p8415
(dp8416
g725
g8415
sssS'176'
p8417
g7059
sS'87'
p8418
g6028
sS'72'
p8419
(dp8420
S'1560'
p8421
(dp8422
g725
g8421
ssssg584
(dp8423
S'173'
p8424
g7282
ssg587
(dp8425
S'164'
p8426
g4575
sS'50'
p8427
g4386
ssg590
(dp8428
S'45'
p8429
(dp8430
S'1991'
p8431
(dp8432
g725
g8431
sssS'28'
p8433
g3042
sS'50'
p8434
g4461
sS'131'
p8435
g1252
sS'130'
p8436
g1739
sS'169'
p8437
g7827
sS'70'
p8438
(dp8439
S'1992'
p8440
(dp8441
g725
g8440
sssS'128'
p8442
g3585
sS'172'
p8443
g7379
sS'136'
p8444
g2057
ssg593
(dp8445
S'80'
p8446
g5859
sS'87'
p8447
g6053
ssg596
(dp8448
S'80'
p8449
g5865
ssg599
(dp8450
S'200'
p8451
g4866
ssg602
(dp8452
S'136'
p8453
g2392
sS'35'
p8454
g6938
ssg605
(dp8455
S'93'
p8456
g7922
sS'111'
p8457
g5417
sS'136'
p8458
g1797
sS'141'
p8459
(dp8460
S'1433'
p8461
(dp8462
g725
g8461
ssssg608
(dp8463
S'11'
p8464
g8036
sS'200'
p8465
g4729
sS'205'
p8466
g6972
sS'154'
p8467
g8300
sS'109'
p8468
g6466
sS'132'
p8469
g1182
sS'50'
p8470
g4392
sS'53'
p8471
g4524
sS'192'
p8472
g5223
sS'35'
p8473
g6914
sS'130'
p8474
g1657
sS'168'
p8475
g7792
sS'65'
p8476
g7158
sS'70'
p8477
(dp8478
S'587'
p8479
(dp8480
g725
g8479
ssS'336'
p8481
(dp8482
g725
g8481
sssS'80'
p8483
g5871
sS'41'
p8484
(dp8485
S'252'
p8486
(dp8487
g725
g8486
ssS'332'
p8488
(dp8489
g725
g8488
sssS'173'
p8490
g7305
sS'87'
p8491
g6073
sS'84'
p8492
g6210
sS'136'
p8493
g2398
ssg611
(dp8494
S'189'
p8495
g7655
sS'21'
p8496
g2906
sS'157'
p8497
g8379
sS'95'
p8498
g7949
sS'130'
p8499
g1663
sS'50'
p8500
g4398
sS'41'
p8501
(dp8502
S'247'
p8503
(dp8504
g725
g8503
sssS'182'
p8505
g7525
sS'75'
p8506
(dp8507
S'654'
p8508
(dp8509
g725
g8508
sssS'109'
p8510
g6472
sS'136'
p8511
g2404
sS'70'
p8512
(dp8513
S'346'
p8514
(dp8515
g725
g8514
sssS'128'
p8516
g3589
sS'176'
p8517
g7055
sS'80'
p8518
g5877
sS'138'
p8519
g2666
sS'86'
p8520
g5982
sS'171'
p8521
g7421
sS'169'
p8522
g7833
ssg614
(dp8523
S'133'
p8524
g1145
sS'130'
p8525
g1669
ssg617
(dp8526
S'18'
p8527
g8179
ssg620
(dp8528
S'24'
p8529
g2698
sS'115'
p8530
g5347
sS'171'
p8531
g7429
sS'212'
p8532
g810
sS'154'
p8533
g8307
sS'198'
p8534
g6365
sS'50'
p8535
g4410
sS'192'
p8536
g5235
sS'77'
p8537
(dp8538
S'306'
p8539
(dp8540
g725
g8539
sssS'131'
p8541
g1256
sS'130'
p8542
g1681
sS'111'
p8543
g5424
sS'136'
p8544
g2410
sS'71'
p8545
(dp8546
S'305'
p8547
(dp8548
g725
g8547
sssS'70'
p8549
(dp8550
S'303'
p8551
(dp8552
g725
g8551
ssS'619'
p8553
(dp8554
g725
g8553
sssS'82'
p8555
g5524
sS'80'
p8556
g5889
sS'41'
p8557
(dp8558
S'301'
p8559
(dp8560
g725
g8559
ssS'254'
p8561
(dp8562
g725
g8561
sssS'95'
p8563
g7953
sS'79'
p8564
(dp8565
S'680'
p8566
(dp8567
g725
g8566
sssS'21'
p8568
g2910
ssg623
(dp8569
S'115'
p8570
g5351
sS'132'
p8571
g1188
sS'130'
p8572
g1687
sS'136'
p8573
g2416
sS'83'
p8574
g5560
sS'80'
p8575
g5895
sS'84'
p8576
g6224
sS'24'
p8577
g2702
sS'25'
p8578
g2758
sS'43'
p8579
(dp8580
S'315'
p8581
(dp8582
g725
g8581
sssS'41'
p8583
(dp8584
S'312'
p8585
(dp8586
g725
g8585
ssS'284'
p8587
(dp8588
g725
g8587
sssS'180'
p8589
g7552
sS'105'
p8590
g6725
sS'207'
p8591
g8430
sS'109'
p8592
g6478
sS'90'
p8593
g7899
sS'223'
p8594
g7017
sS'163'
p8595
g3190
sS'189'
p8596
g7661
sS'50'
p8597
g4416
sS'34'
p8598
g6952
sS'123'
p8599
g3405
ssg626
(dp8600
S'18'
p8601
g8185
ssg629
(dp8602
S'11'
p8603
g8046
sS'154'
p8604
g8315
sS'45'
p8605
g8580
sS'136'
p8606
g2422
sS'70'
p8607
(dp8608
S'573'
p8609
(dp8610
g725
g8609
sssS'80'
p8611
g5901
ssg632
(dp8612
S'62'
p8613
g7133
sS'136'
p8614
g2428
ssg635
(dp8615
S'165'
p8616
g1018
sS'217'
p8617
g752
sS'214'
p8618
g776
sS'152'
p8619
g8240
sS'77'
p8620
(dp8621
S'288'
p8622
(dp8623
g725
g8622
sssS'154'
p8624
g8320
sS'157'
p8625
g8386
sS'211'
p8626
g983
sS'223'
p8627
g7023
sS'194'
p8628
g4966
sS'197'
p8629
g5025
sS'176'
p8630
g7070
sS'193'
p8631
g5124
sS'219'
p8632
g1100
sS'104'
p8633
g6689
sS'132'
p8634
g1204
sS'131'
p8635
g1279
sS'130'
p8636
g1693
sS'111'
p8637
g5434
sS'136'
p8638
g2434
sS'226'
p8639
g6404
sS'69'
p8640
g7231
sS'80'
p8641
g5907
sS'119'
p8642
g3267
sS'172'
p8643
g7373
sS'171'
p8644
g7441
sS'213'
p8645
g859
sS'25'
p8646
g2769
sS'86'
p8647
g5991
sS'27'
p8648
g2830
sS'22'
p8649
g2954
sS'49'
p8650
g8502
sS'106'
p8651
g6628
sS'44'
p8652
g8558
sS'45'
p8653
g8584
sS'28'
p8654
g3052
sS'87'
p8655
g6077
sg113
g3097
sS'122'
p8656
g3381
sg437
g7580
sg116
g3124
sS'185'
p8657
g7714
sg644
(dp8658
S'45'
p8659
(dp8660
g725
g8659
ssS'242'
p8661
(dp8662
g725
g8661
sssS'189'
p8663
g7667
sS'200'
p8664
g4741
sS'203'
p8665
g7484
sS'205'
p8666
g6981
sS'204'
p8667
g8206
sS'221'
p8668
g7701
sS'128'
p8669
g3603
sS'120'
p8670
g3319
sS'98'
p8671
g7758
sS'75'
p8672
(dp8673
S'662'
p8674
(dp8675
g725
g8674
sssS'109'
p8676
g6455
sS'168'
p8677
g7796
sS'169'
p8678
g7843
sS'229'
p8679
g7873
sS'70'
p8680
(dp8681
S'608'
p8682
(dp8683
g725
g8682
ssS'233'
p8684
(dp8685
g725
g8684
sssS'164'
p8686
g4569
sS'103'
p8687
g6569
sS'101'
p8688
g6594
sS'95'
p8689
g7960
sS'97'
p8690
g7985
sS'11'
p8691
g8068
sS'10'
p8692
g8085
sS'48'
p8693
g8485
sS'173'
p8694
g7312
sS'61'
p8695
g7126
sS'19'
p8696
g8153
sS'31'
p8697
g6787
sS'30'
p8698
g6810
sS'50'
p8699
g4422
sS'35'
p8700
g6922
sS'123'
p8701
g3425
sS'195'
p8702
g4894
sS'102'
p8703
g6530
ssg638
(dp8704
S'61'
p8705
g7111
sS'80'
p8706
g5912
sS'152'
p8707
g8226
sS'50'
p8708
g4427
sS'36'
p8709
g6898
ssg641
(dp8710
S'217'
p8711
g761
sS'80'
p8712
g5915
sS'130'
p8713
g1698
ssg644
(dp8714
S'120'
p8715
g3338
sS'152'
p8716
g8255
sS'154'
p8717
g8326
sS'141'
p8718
(dp8719
S'1435'
p8720
(dp8721
g725
g8720
ssS'49'
p8722
(dp8723
g725
g8722
sssS'86'
p8724
g6011
sS'50'
p8725
g4431
sS'41'
p8726
g8658
sS'77'
p8727
(dp8728
S'672'
p8729
(dp8730
g725
g8729
sssS'130'
p8731
g1703
sS'136'
p8732
g2439
sS'70'
p8733
(dp8734
S'47'
p8735
(dp8736
g725
g8735
ssS'614'
p8737
(dp8738
g725
g8737
sssS'128'
p8739
g3632
sS'80'
p8740
g5918
sS'192'
p8741
g5258
sS'106'
p8742
g6637
sS'87'
p8743
g6082
sS'84'
p8744
g6241
sS'105'
p8745
g6737
ssg647
(dp8746
S'195'
p8747
g4880
sS'200'
p8748
g4769
sS'59'
p8749
g3802
sS'136'
p8750
g2445
sS'176'
p8751
g7039
ssg650
(dp8752
S'202'
p8753
g7685
sS'136'
p8754
g1955
ssg653
(dp8755
S'18'
p8756
g8167
ssg656
(dp8757
S'217'
p8758
g742
sS'13'
p8759
g8107
sS'61'
p8760
g7105
sS'122'
p8761
g3377
sS'130'
p8762
g1727
sS'70'
p8763
(dp8764
S'569'
p8765
(dp8766
g725
g8765
ssS'1440'
p8767
(dp8768
g725
g8767
ssssg659
(dp8769
S'70'
p8770
(dp8771
S'591'
p8772
(dp8773
g725
g8772
ssS'1436'
p8774
(dp8775
g725
g8774
ssssg662
(dp8776
S'18'
p8777
g8173
ssg665
(dp8778
S'99'
p8779
g7739
sS'136'
p8780
g2481
ssg668
(dp8781
g644
g8719
sS'224'
p8782
g8460
sS'136'
p8783
g2063
sS'134'
p8784
g2590
ssg671
(dp8785
S'200'
p8786
g4787
ssg674
(dp8787
S'10'
p8788
g8080
sS'149'
p8789
(dp8790
S'1999'
p8791
(dp8792
g725
g8791
sssS'50'
p8793
g4467
sS'172'
p8794
g7383
ssg677
(dp8795
S'200'
p8796
g4799
sS'118'
p8797
g3768
sS'192'
p8798
g5282
ssg680
(dp8799
S'208'
p8800
g8790
sS'215'
p8801
g799
sS'50'
p8802
g4473
sS'210'
p8803
g926
sS'96'
p8804
g8013
ssg683
(dp8805
S'154'
p8806
g8336
sS'22'
p8807
g2960
sS'44'
p8808
g8538
sS'50'
p8809
g4479
sS'41'
p8810
g8621
sS'130'
p8811
g1745
sS'75'
p8812
(dp8813
S'661'
p8814
(dp8815
g725
g8814
sssS'74'
p8816
(dp8817
S'665'
p8818
(dp8819
g725
g8818
sssS'111'
p8820
g5440
sS'125'
p8821
g3466
sS'229'
p8822
g7858
sS'70'
p8823
(dp8824
S'604'
p8825
(dp8826
g725
g8825
sssg644
g8728
sS'80'
p8827
g5941
sS'84'
p8828
g6270
ssg686
(dp8829
S'130'
p8830
g1751
sS'22'
p8831
g2964
ssg689
(dp8832
S'77'
p8833
g8813
sS'154'
p8834
g8343
sS'49'
p8835
g8507
sS'50'
p8836
g4485
sS'41'
p8837
g8673
sS'120'
p8838
g3326
sS'181'
p8839
g7514
sS'136'
p8840
g2493
sS'128'
p8841
g3617
sS'90'
p8842
g7904
sS'80'
p8843
g5947
sS'86'
p8844
g5997
sS'84'
p8845
g6282
ssg692
(dp8846
S'50'
p8847
g4491
sS'77'
p8848
g8817
sS'136'
p8849
g2499
sS'185'
p8850
g7722
sS'223'
p8851
g7012
sS'172'
p8852
g7409
ssg695
(dp8853
S'50'
p8854
g4497
ssg698
(dp8855
S'159'
p8856
g8420
sS'51'
p8857
g3925
sS'37'
p8858
g6868
sS'98'
p8859
g7746
sS'136'
p8860
g2505
sS'93'
p8861
g7927
sS'80'
p8862
g5953
ssg701
(dp8863
S'200'
p8864
g4809
sS'44'
p8865
g8546
sS'192'
p8866
g5294
sS'136'
p8867
g2511
sS'134'
p8868
g2624
ssg704
(dp8869
S'152'
p8870
g8250
sS'172'
p8871
g7389
sS'213'
p8872
g877
sS'157'
p8873
g8393
sS'211'
p8874
g973
sS'159'
p8875
g8412
sS'194'
p8876
g4981
sS'176'
p8877
g7082
sS'190'
p8878
g5088
sS'218'
p8879
g1073
sS'192'
p8880
g5148
sS'133'
p8881
g1167
sS'61'
p8882
g7122
sS'130'
p8883
g1757
sS'97'
p8884
g7996
sS'65'
p8885
g7168
sS'229'
p8886
g7880
sS'165'
p8887
g1024
sS'69'
p8888
g7248
sS'80'
p8889
g5957
sS'119'
p8890
g3275
sS'118'
p8891
g3780
sS'171'
p8892
g7433
sS'154'
p8893
g8352
sS'198'
p8894
g6372
sS'182'
p8895
g7532
sS'86'
p8896
g6008
sS'207'
p8897
g8439
sS'48'
p8898
g8478
sS'49'
p8899
g8513
sS'223'
p8900
g7029
sS'44'
p8901
g8550
sS'43'
p8902
g8608
sS'105'
p8903
g6742
sS'41'
p8904
g8681
sS'169'
p8905
g7852
sS'183'
p8906
g7541
sS'96'
p8907
g8021
sS'162'
p8908
g7597
sg116
g3136
sg644
g8734
sS'189'
p8909
g7638
sS'87'
p8910
g6110
sS'200'
p8911
g4815
sS'203'
p8912
g7497
sS'145'
p8913
g8764
sS'205'
p8914
g6989
sS'78'
p8915
(dp8916
S'675'
p8917
(dp8918
g725
g8917
ssS'634'
p8919
(dp8920
g725
g8919
sssS'128'
p8921
g3627
sS'191'
p8922
g5059
sS'142'
p8923
g8771
sS'77'
p8924
g8824
sS'121'
p8925
g3370
sS'109'
p8926
g6448
sS'168'
p8927
g7804
sS'193'
p8928
g5116
sS'126'
p8929
g3485
sS'127'
p8930
g3536
sS'102'
p8931
g6523
sS'103'
p8932
g6562
sS'100'
p8933
g6582
sS'136'
p8934
g2517
sS'106'
p8935
g6652
sS'84'
p8936
g6296
sS'163'
p8937
g3210
sS'11'
p8938
g8060
sS'10'
p8939
g8096
sS'59'
p8940
g3843
sS'22'
p8941
g2969
sS'173'
p8942
g7288
sS'132'
p8943
g1217
sS'19'
p8944
g8148
sS'135'
p8945
g2546
sS'56'
p8946
g3912
sS'37'
p8947
g6872
sS'50'
p8948
g4503
sS'160'
p8949
g3029
sS'195'
p8950
g4913
sS'180'
p8951
g7561
sS'219'
p8952
g1122
sS'110'
p8953
g5489
ssg707
(dp8954
S'202'
p8955
g7690
sS'44'
p8956
g8565
sS'50'
p8957
g4509
sS'130'
p8958
g1763
sS'136'
p8959
g2523
sS'80'
p8960
g5963
sS'106'
p8961
g6663
ssg710
(dp8962
S'11'
p8963
g8053
sS'37'
p8964
g6883
sS'130'
p8965
g1767
sS'70'
p8966
g8916
sS'80'
p8967
g5967
sS'84'
p8968
g6266
ssg713
(dp8969
S'50'
p8970
g4294
sS'36'
p8971
g6904
sssS'adj'
p8972
g719
sS'name'
p8973
S''
p8974
sb.